 test_sfun

 Timestamp is 5629be26 (Fri Oct 23 00:57:10 2015)

 Preferred load address is 0000000180000000

 Start         Length     Name                   Class
 0001:00000000 00019162H .text                   CODE
 0001:00019170 0000007bH .text$x                 CODE
 0002:00000000 00000498H .idata$5                DATA
 0002:00000498 00000008H .CRT$XCA                DATA
 0002:000004a0 00000008H .CRT$XCZ                DATA
 0002:000004a8 00000008H .CRT$XIA                DATA
 0002:000004b0 00000008H .CRT$XIAA               DATA
 0002:000004b8 00000008H .CRT$XIC                DATA
 0002:000004c0 00000008H .CRT$XIZ                DATA
 0002:000004d0 000007d0H .rdata                  DATA
 0002:00000ca0 00000008H .rtc$IAA                DATA
 0002:00000ca8 00000008H .rtc$IZZ                DATA
 0002:00000cb0 00000008H .rtc$TAA                DATA
 0002:00000cb8 00000008H .rtc$TZZ                DATA
 0002:00000cc0 000008ecH .xdata                  DATA
 0002:000015ac 0000008cH .idata$2                DATA
 0002:00001638 00000014H .idata$3                DATA
 0002:00001650 00000498H .idata$4                DATA
 0002:00001ae8 00000ce6H .idata$6                DATA
 0002:000027d0 0000004fH .edata                  DATA
 0003:00000000 00005ef8H .data                   DATA
 0003:00005f00 000006d8H .bss                    DATA
 0004:00000000 00000a80H .pdata                  DATA

  Address         Publics by Value              Rva+Base               Lib:Object

 0000:00000000       ___safe_se_handler_table   0000000000000000     <absolute>
 0000:00000000       ___safe_se_handler_count   0000000000000000     <absolute>
 0000:00000000       __ImageBase                0000000180000000     <linker-defined>
 0001:00000000       test_initializer           0000000180001000 f   test_sfun.obj
 0001:00000010       test_terminator            0000000180001010 f   test_sfun.obj
 0001:00000020       load_test_optimization_info 0000000180001020 f   test_sfun.obj
 0001:00000070       unload_test_optimization_info 0000000180001070 f   test_sfun.obj
 0001:000000a0       sf_test_method_dispatcher  00000001800010a0 f   test_sfun.obj
 0001:00000110       sf_test_uses_exported_functions 0000000180001110 f   test_sfun.obj
 0001:00000150       sf_test_process_check_sum_call 0000000180001150 f   test_sfun.obj
 0001:000007f0       sf_test_autoinheritance_info 00000001800017f0 f   test_sfun.obj
 0001:00000a30       sf_test_get_eml_resolved_functions_info 0000000180001a30 f   test_sfun.obj
 0001:00000be0       sf_test_third_party_uses_info 0000000180001be0 f   test_sfun.obj
 0001:00000de0       sf_test_jit_fallback_info  0000000180001de0 f   test_sfun.obj
 0001:00000fe0       sf_test_updateBuildInfo_args_info 0000000180001fe0 f   test_sfun.obj
 0001:000011e0       sf_test_get_post_codegen_info 00000001800021e0 f   test_sfun.obj
 0001:00001330       test_debug_initialize      0000000180002330 f   test_sfun.obj
 0001:000013b0       test_register_exported_symbols 00000001800023b0 f   test_sfun.obj
 0001:000013c0       sf_c1_test_get_eml_resolved_functions_info 00000001800023c0 f   c1_test.obj
 0001:00001430       sf_c1_test_get_check_sum   0000000180002430 f   c1_test.obj
 0001:00001500       c1_test_method_dispatcher  0000000180002500 f   c1_test.obj
 0001:00009030       sf_c1_test_get_post_codegen_info 000000018000a030 f   c1_test.obj
 0001:00009100       sf_c1_test_get_autoinheritance_info 000000018000a100 f   c1_test.obj
 0001:000096a0       sf_c1_test_third_party_uses_info 000000018000a6a0 f   c1_test.obj
 0001:000096d0       sf_c1_test_jit_fallback_info 000000018000a6d0 f   c1_test.obj
 0001:000097c0       sf_c1_test_updateBuildInfo_args_info 000000018000a7c0 f   c1_test.obj
 0001:0000aef0       sf_c2_test_get_eml_resolved_functions_info 000000018000bef0 f   c2_test.obj
 0001:0000af60       sf_c2_test_get_check_sum   000000018000bf60 f   c2_test.obj
 0001:0000b030       c2_test_method_dispatcher  000000018000c030 f   c2_test.obj
 0001:0000fba0       sf_c2_test_get_post_codegen_info 0000000180010ba0 f   c2_test.obj
 0001:0000fc70       sf_c2_test_get_autoinheritance_info 0000000180010c70 f   c2_test.obj
 0001:000100c0       sf_c2_test_third_party_uses_info 00000001800110c0 f   c2_test.obj
 0001:000100f0       sf_c2_test_jit_fallback_info 00000001800110f0 f   c2_test.obj
 0001:000101e0       sf_c2_test_updateBuildInfo_args_info 00000001800111e0 f   c2_test.obj
 0001:000115b0       mexFunction                00000001800125b0 f   test_sfun_registry.obj
 0001:00012750       _ssSetInputPortDirectFeedThroughFcn 0000000180013750 f   test_sfun_registry.obj
 0001:000128b0       _ssGetInputPortSignalPtrsFcn 00000001800138b0 f   test_sfun_registry.obj
 0001:00012ad0       _ssGetInputPortSignalFcn   0000000180013ad0 f   test_sfun_registry.obj
 0001:00012cf0       _ssSetInputPortReusableFcn 0000000180013cf0 f   test_sfun_registry.obj
 0001:00012dd0       _ssSetOutputPortReusableFcn 0000000180013dd0 f   test_sfun_registry.obj
 0001:00012eb0       ssGetIsZeroCrossControlDisabled 0000000180013eb0 f   test_sfun_registry.obj
 0001:00012f20       ssSetIsInputPortUsedForContZcSignal 0000000180013f20 f   test_sfun_registry.obj
 0001:00012f90       ssSetZcSignalIsZcElementDisc 0000000180013f90 f   test_sfun_registry.obj
 0001:00013040       ssSetZcSignalName          0000000180014040 f   test_sfun_registry.obj
 0001:000130b0       ssSetZcSignalWidth         00000001800140b0 f   test_sfun_registry.obj
 0001:00013120       ssSetZcSignalZcEventType   0000000180014120 f   test_sfun_registry.obj
 0001:00013190       ssSetZcSignalType          0000000180014190 f   test_sfun_registry.obj
 0001:00013200       ssSetZcSignalZcTol         0000000180014200 f   test_sfun_registry.obj
 0001:00013270       ssSetZcSignalNeedsEventNotification 0000000180014270 f   test_sfun_registry.obj
 0001:000132e0       ssCreateAndAddZcSignalInfo 00000001800142e0 f   test_sfun_registry.obj
 0001:00013350       ssCloneAndAddZcSignalInfo  0000000180014350 f   test_sfun_registry.obj
 0001:000133c0       ssGetNumZcSignals          00000001800143c0 f   test_sfun_registry.obj
 0001:00013430       ssGetZcSignalVector        0000000180014430 f   test_sfun_registry.obj
 0001:000134a0       ssGetZcSignalName          00000001800144a0 f   test_sfun_registry.obj
 0001:00013510       ssGetZcSignalWidth         0000000180014510 f   test_sfun_registry.obj
 0001:00013580       ssGetZcSignalZcEventType   0000000180014580 f   test_sfun_registry.obj
 0001:000135f0       ssGetZcSignalZcEvents      00000001800145f0 f   test_sfun_registry.obj
 0001:00013660       ssGetZcSignalType          0000000180014660 f   test_sfun_registry.obj
 0001:000136d0       ssGetZcSignalZcTol         00000001800146d0 f   test_sfun_registry.obj
 0001:00013750       ssGetZcSignalNeedsEventNotification 0000000180014750 f   test_sfun_registry.obj
 0001:000137c0       ssGetZcSignalIsZcElementDisc 00000001800147c0 f   test_sfun_registry.obj
 0001:00013860       ssGetIsInputPortElementContinuous 0000000180014860 f   test_sfun_registry.obj
 0001:00013900       ssGetDTypeIdFromMxArray    0000000180014900 f   test_sfun_registry.obj
 0001:00013a20       ssWriteRTWStr              0000000180014a20 f   test_sfun_registry.obj
 0001:00013a80       ssWriteRTWNameValuePair    0000000180014a80 f   test_sfun_registry.obj
 0001:00013f80       ssWriteRTWParamSettings    0000000180014f80 f   test_sfun_registry.obj
 0001:00014670       ssWriteRTWParameters       0000000180015670 f   test_sfun_registry.obj
 0001:00014c40       ssWriteRTWWorkVect         0000000180015c40 f   test_sfun_registry.obj
 0001:00015130       ssWriteRTWMxVectParam      0000000180016130 f   test_sfun_registry.obj
 0001:000151b0       ssWriteRTWMx2dMatParam     00000001800161b0 f   test_sfun_registry.obj
 0001:00015240       _ssSetInputPortMatrixDimensions 0000000180016240 f   test_sfun_registry.obj
 0001:00015340       _ssSetOutputPortMatrixDimensions 0000000180016340 f   test_sfun_registry.obj
 0001:00015440       _ssSetInputPortVectorDimension 0000000180016440 f   test_sfun_registry.obj
 0001:000154f0       _ssSetOutputPortVectorDimension 00000001800164f0 f   test_sfun_registry.obj
 0001:000155a0       ssIsRunTimeParamTunable    00000001800165a0 f   test_sfun_registry.obj
 0001:00015610       ssGetSFuncBlockHandle      0000000180016610 f   test_sfun_registry.obj
 0001:00015680       _ssGetCurrentInputPortWidth 0000000180016680 f   test_sfun_registry.obj
 0001:000157a0       _ssGetCurrentOutputPortWidth 00000001800167a0 f   test_sfun_registry.obj
 0001:000158c0       _ssGetCallSystemNumFcnCallDestinations 00000001800168c0 f   test_sfun_registry.obj
 0001:00015930       ssWarning                  0000000180016930 f   test_sfun_registry.obj
 0001:00015a20       _ssGetAbsTol               0000000180016a20 f   test_sfun_registry.obj
 0001:00015a90       _ssSetStateAbsTol          0000000180016a90 f   test_sfun_registry.obj
 0001:00015b70       sf_process_check_sum_call  0000000180016b70 f   test_sfun_registry.obj
 0001:00015bc0       sf_process_machine_uses_exported_functions_call 0000000180016bc0 f   test_sfun_registry.obj
 0001:00015d70       sf_process_autoinheritance_call 0000000180016d70 f   test_sfun_registry.obj
 0001:00015fa0       sf_process_get_third_party_uses_info_call 0000000180016fa0 f   test_sfun_registry.obj
 0001:000161d0       sf_process_get_jit_fallback_info_call 00000001800171d0 f   test_sfun_registry.obj
 0001:00016400       sf_process_get_updateBuildInfo_args_info_call 0000000180017400 f   test_sfun_registry.obj
 0001:00016630       sf_process_get_eml_resolved_functions_info_call 0000000180017630 f   test_sfun_registry.obj
 0001:00016830       sf_process_get_post_codegen_info 0000000180017830 f   test_sfun_registry.obj
 0001:000169e0       sf_mex_unlock_call         00000001800179e0 f   test_sfun_registry.obj
 0001:00016cc0       sf_machine_global_initializer_called 0000000180017cc0 f   test_sfun_registry.obj
 0001:00016cf0       sf_machine_global_method_dispatcher 0000000180017cf0 f   test_sfun_registry.obj
 0001:00016d50       sf_machine_global_terminator 0000000180017d50 f   test_sfun_registry.obj
 0001:00016da0       sf_register_machine_exported_symbols 0000000180017da0 f   test_sfun_registry.obj
 0001:00016dc0       callCustomFcn              0000000180017dc0 f   test_sfun_registry.obj
 0001:00016dd0       sf_machine_global_initializer 0000000180017dd0 f   test_sfun_registry.obj
 0001:00016e90       mdlGetSimState             0000000180017e90 f   test_sfun_registry.obj
 0001:00016ed0       mdlSetSimState             0000000180017ed0 f   test_sfun_registry.obj
 0001:000176a0       ProcessMexSfunctionEveryCall 00000001800186a0 f   test_sfun_registry.obj
 0001:00018314       sf_load_rtw_optimization_info 0000000180019314 f   sf_runtime:sf_runtime.dll
 0001:0001831a       sf_debug_initialize_machine 000000018001931a f   sf_runtime:sf_runtime.dll
 0001:00018320       sf_debug_set_machine_event_thresholds 0000000180019320 f   sf_runtime:sf_runtime.dll
 0001:00018326       sf_debug_set_machine_data_thresholds 0000000180019326 f   sf_runtime:sf_runtime.dll
 0001:0001832c       sf_rtw_info_uint_prop      000000018001932c f   sf_runtime:sf_runtime.dll
 0001:00018332       sf_update_buildInfo        0000000180019332 f   sf_runtime:sf_runtime.dll
 0001:00018338       sf_is_chart_inlinable      0000000180019338 f   sf_runtime:sf_runtime.dll
 0001:0001833e       sf_mark_chart_reusable_outputs 000000018001933e f   sf_runtime:sf_runtime.dll
 0001:00018344       sf_mark_chart_expressionable_inputs 0000000180019344 f   sf_runtime:sf_runtime.dll
 0001:0001834a       sim_mode_is_rtw_gen        000000018001934a f   sf_runtime:sf_runtime.dll
 0001:00018350       sim_mode_is_external       0000000180019350 f   sf_runtime:sf_runtime.dll
 0001:00018356       sf_clear_rtw_identifier    0000000180019356 f   sf_runtime:sf_runtime.dll
 0001:0001835c       sf_set_rtw_dwork_info      000000018001935c f   sf_runtime:sf_runtime.dll
 0001:00018362       sf_get_time                0000000180019362 f   sf_runtime:sf_runtime.dll
 0001:00018368       sf_mex_error_message       0000000180019368 f   sf_runtime:sf_runtime.dll
 0001:0001836e       sf_mex_addfield            000000018001936e f   sf_runtime:sf_runtime.dll
 0001:00018374       sf_mex_createstruct        0000000180019374 f   sf_runtime:sf_runtime.dll
 0001:0001837a       sf_mex_create              000000018001937a f   sf_runtime:sf_runtime.dll
 0001:00018380       sf_mex_createcellmatrix    0000000180019380 f   sf_runtime:sf_runtime.dll
 0001:00018386       sf_mex_setcell             0000000180019386 f   sf_runtime:sf_runtime.dll
 0001:0001838c       sf_mex_getcell             000000018001938c f   sf_runtime:sf_runtime.dll
 0001:00018392       sf_mex_assign              0000000180019392 f   sf_runtime:sf_runtime.dll
 0001:00018398       sf_mex_dup                 0000000180019398 f   sf_runtime:sf_runtime.dll
 0001:0001839e       sf_mex_destroy             000000018001939e f   sf_runtime:sf_runtime.dll
 0001:000183a4       sf_mex_import              00000001800193a4 f   sf_runtime:sf_runtime.dll
 0001:000183aa       sf_mex_decode_encoded_mx_struct_array 00000001800193aa f   sf_runtime:sf_runtime.dll
 0001:000183b0       sf_mex_duplicatearraysafe  00000001800193b0 f   sf_runtime:sf_runtime.dll
 0001:000183b6       sf_mex_emlrtNameCapturePostProcessR2012a 00000001800193b6 f   sf_runtime:sf_runtime.dll
 0001:000183bc       ssGetInputPortSignal_wrapper 00000001800193bc f   sf_runtime:sf_runtime.dll
 0001:000183c2       ssGetOutputPortSignal_wrapper 00000001800193c2 f   sf_runtime:sf_runtime.dll
 0001:000183c8       sf_debug_initialize_chart  00000001800193c8 f   sf_runtime:sf_runtime.dll
 0001:000183ce       sf_debug_call              00000001800193ce f   sf_runtime:sf_runtime.dll
 0001:000183d4       eml_debug_line_call        00000001800193d4 f   sf_runtime:sf_runtime.dll
 0001:000183da       cv_eml_eval                00000001800193da f   sf_runtime:sf_runtime.dll
 0001:000183e0       cv_eval_relational         00000001800193e0 f   sf_runtime:sf_runtime.dll
 0001:000183e6       cv_eml_init_script         00000001800193e6 f   sf_runtime:sf_runtime.dll
 0001:000183ec       cv_eml_init_fcn            00000001800193ec f   sf_runtime:sf_runtime.dll
 0001:000183f2       cv_eml_init_if             00000001800193f2 f   sf_runtime:sf_runtime.dll
 0001:000183f8       cv_eml_init_relational     00000001800193f8 f   sf_runtime:sf_runtime.dll
 0001:000183fe       cv_script_eval             00000001800193fe f   sf_runtime:sf_runtime.dll
 0001:00018404       cv_script_init_script      0000000180019404 f   sf_runtime:sf_runtime.dll
 0001:0001840a       cv_script_init_fcn         000000018001940a f   sf_runtime:sf_runtime.dll
 0001:00018410       sf_debug_reset_current_state_configuration 0000000180019410 f   sf_runtime:sf_runtime.dll
 0001:00018416       sf_debug_check_for_state_inconsistency 0000000180019416 f   sf_runtime:sf_runtime.dll
 0001:0001841c       sf_debug_set_chart_data_props 000000018001941c f   sf_runtime:sf_runtime.dll
 0001:00018422       sf_debug_set_chart_data_compiled_props 0000000180019422 f   sf_runtime:sf_runtime.dll
 0001:00018428       sf_debug_symbol_scope_push 0000000180019428 f   sf_runtime:sf_runtime.dll
 0001:0001842e       sf_debug_symbol_scope_push_eml 000000018001942e f   sf_runtime:sf_runtime.dll
 0001:00018434       sf_debug_symbol_scope_pop  0000000180019434 f   sf_runtime:sf_runtime.dll
 0001:0001843a       sf_debug_symbol_scope_add_eml 000000018001943a f   sf_runtime:sf_runtime.dll
 0001:00018440       sf_debug_symbol_scope_add_eml_importable 0000000180019440 f   sf_runtime:sf_runtime.dll
 0001:00018446       sf_debug_set_instance_data_value_ptr 0000000180019446 f   sf_runtime:sf_runtime.dll
 0001:0001844c       sf_debug_set_chart_disable_implicit_casting 000000018001944c f   sf_runtime:sf_runtime.dll
 0001:00018452       sf_debug_set_chart_event_thresholds 0000000180019452 f   sf_runtime:sf_runtime.dll
 0001:00018458       sf_debug_set_chart_state_info 0000000180019458 f   sf_runtime:sf_runtime.dll
 0001:0001845e       sf_debug_set_chart_decomposition 000000018001945e f   sf_runtime:sf_runtime.dll
 0001:00018464       sf_debug_set_chart_substate_count 0000000180019464 f   sf_runtime:sf_runtime.dll
 0001:0001846a       sf_debug_data_range_wrapper 000000018001946a f   sf_runtime:sf_runtime.dll
 0001:00018470       sf_debug_cv_init_trans     0000000180019470 f   sf_runtime:sf_runtime.dll
 0001:00018476       sf_debug_cv_init_chart     0000000180019476 f   sf_runtime:sf_runtime.dll
 0001:0001847c       sf_debug_cv_init_state     000000018001947c f   sf_runtime:sf_runtime.dll
 0001:00018482       sf_debug_get_script_id     0000000180019482 f   sf_runtime:sf_runtime.dll
 0001:00018488       sf_debug_set_script_translation 0000000180019488 f   sf_runtime:sf_runtime.dll
 0001:0001848e       sf_mex_printf              000000018001948e f   sf_runtime:sf_runtime.dll
 0001:00018494       sf_mex_call_debug          0000000180019494 f   sf_runtime:sf_runtime.dll
 0001:0001849a       callMdlMethodAndReportError 000000018001949a f   sf_runtime:sf_runtime.dll
 0001:000184a0       call_sf_machine_global_method_dispatcher 00000001800194a0 f   sf_runtime:sf_runtime.dll
 0001:000184a6       sf_mex_error_direct_call   00000001800194a6 f   sf_runtime:sf_runtime.dll
 0001:000184ac       sf_clear_error_manager_info 00000001800194ac f   sf_runtime:sf_runtime.dll
 0001:000184b2       sf_debug_create_debug_instance_struct 00000001800194b2 f   sf_runtime:sf_runtime.dll
 0001:000184b8       sf_debug_terminate         00000001800194b8 f   sf_runtime:sf_runtime.dll
 0001:000184be       sf_debug_api               00000001800194be f   sf_runtime:sf_runtime.dll
 0001:000184c4       mxIsChar                   00000001800194c4 f   libmx:libmx.dll
 0001:000184ca       mxGetPr                    00000001800194ca f   libmx:libmx.dll
 0001:000184d0       mxGetScalar                00000001800194d0 f   libmx:libmx.dll
 0001:000184d6       mxDestroyArray             00000001800194d6 f   libmx:libmx.dll
 0001:000184dc       mxCreateDoubleMatrix_730   00000001800194dc f   libmx:libmx.dll
 0001:000184e2       mxCreateLogicalScalar      00000001800194e2 f   libmx:libmx.dll
 0001:000184e8       mxGetString_730            00000001800194e8 f   libmx:libmx.dll
 0001:000184ee       mxDuplicateArray           00000001800194ee f   libmx:libmx.dll
 0001:000184f4       mxSetField_730             00000001800194f4 f   libmx:libmx.dll
 0001:000184fa       mxCreateDoubleScalar       00000001800194fa f   libmx:libmx.dll
 0001:00018500       mxCreateString             0000000180019500 f   libmx:libmx.dll
 0001:00018506       mxCreateCellMatrix_730     0000000180019506 f   libmx:libmx.dll
 0001:0001850c       mxCreateCellArray_730      000000018001950c f   libmx:libmx.dll
 0001:00018512       mxCreateStructMatrix_730   0000000180019512 f   libmx:libmx.dll
 0001:00018518       mxCreateStructArray_730    0000000180019518 f   libmx:libmx.dll
 0001:0001851e       mxCalloc                   000000018001951e f   libmx:libmx.dll
 0001:00018524       mxGetM                     0000000180019524 f   libmx:libmx.dll
 0001:0001852a       mxGetClassID               000000018001952a f   libmx:libmx.dll
 0001:00018530       mxIsNumeric                0000000180019530 f   libmx:libmx.dll
 0001:00018536       mxIsComplex                0000000180019536 f   libmx:libmx.dll
 0001:0001853c       mxGetN                     000000018001953c f   libmx:libmx.dll
 0001:00018542       mexMakeArrayPersistent     0000000180019542 f   libmex:libmex.dll
 0001:00018548       mexErrMsgTxt               0000000180019548 f   libmex:libmex.dll
 0001:0001854e       mexWarnMsgTxt              000000018001954e f   libmex:libmex.dll
 0001:00018554       mexCallMATLABWithObject    0000000180019554 f   libmex:libmex.dll
 0001:0001855a       mexLock                    000000018001955a f   libmex:libmex.dll
 0001:00018560       mexUnlock                  0000000180019560 f   libmex:libmex.dll
 0001:00018566       mexIsLocked                0000000180019566 f   libmex:libmex.dll
 0001:0001856c       utMalloc                   000000018001956c f   libut:libut.dll
 0001:00018572       utFree                     0000000180019572 f   libut:libut.dll
 0001:00018578       muDoubleScalarAbs          0000000180019578 f   libmwmathutil:libmwmathutil.dll
 0001:0001857e       muDoubleScalarCos          000000018001957e f   libmwmathutil:libmwmathutil.dll
 0001:00018584       muDoubleScalarSin          0000000180019584 f   libmwmathutil:libmwmathutil.dll
 0001:0001858a       muDoubleScalarAtan2        000000018001958a f   libmwmathutil:libmwmathutil.dll
 0001:00018590       __raise_securityfailure    0000000180019590 f   MSVCRT:gs_report.obj
 0001:000185dc       __report_gsfailure         00000001800195dc f   MSVCRT:gs_report.obj
 0001:000186b0       __report_rangecheckfailure 00000001800196b0 f   MSVCRT:gs_report.obj
 0001:000186c4       __report_securityfailure   00000001800196c4 f   MSVCRT:gs_report.obj
 0001:00018760       __report_securityfailureEx 0000000180019760 f   MSVCRT:gs_report.obj
 0001:0001886e       strcmp                     000000018001986e f   MSVCRT:MSVCR110.dll
 0001:00018874       __GSHandlerCheck           0000000180019874 f   MSVCRT:gshandler.obj
 0001:00018894       __GSHandlerCheckCommon     0000000180019894 f   MSVCRT:gshandler.obj
 0001:00018910       __security_check_cookie    0000000180019910 f   MSVCRT:amdsecgs.obj
 0001:00018930       memset                     0000000180019930 f   MSVCRT:MSVCR110.dll
 0001:00018936       strlen                     0000000180019936 f   MSVCRT:MSVCR110.dll
 0001:0001893c       memcpy                     000000018001993c f   MSVCRT:MSVCR110.dll
 0001:00018942       strcat                     0000000180019942 f   MSVCRT:MSVCR110.dll
 0001:00018948       sprintf                    0000000180019948 f   MSVCRT:MSVCR110.dll
 0001:0001894e       free                       000000018001994e f   MSVCRT:MSVCR110.dll
 0001:00018954       malloc                     0000000180019954 f   MSVCRT:MSVCR110.dll
 0001:000189bc       NtCurrentTeb               00000001800199bc f i MSVCRT:crtdll.obj
 0001:000189c8       _CRT_INIT                  00000001800199c8 f   MSVCRT:crtdll.obj
 0001:00018c14       _DllMainCRTStartup         0000000180019c14 f   MSVCRT:crtdll.obj
 0001:00018d8a       __crt_debugger_hook        0000000180019d8a f   MSVCRT:MSVCR110.dll
 0001:00018d90       __crtUnhandledException    0000000180019d90 f   MSVCRT:MSVCR110.dll
 0001:00018d96       __crtTerminateProcess      0000000180019d96 f   MSVCRT:MSVCR110.dll
 0001:00018d9c       __crtCaptureCurrentContext 0000000180019d9c f   MSVCRT:MSVCR110.dll
 0001:00018da2       __crtCapturePreviousContext 0000000180019da2 f   MSVCRT:MSVCR110.dll
 0001:00018da8       __CppXcptFilter            0000000180019da8 f   MSVCRT:MSVCR110.dll
 0001:00018dae       _amsg_exit                 0000000180019dae f   MSVCRT:MSVCR110.dll
 0001:00018dc0       _FindPESection             0000000180019dc0 f   MSVCRT:pesect.obj
 0001:00018e10       _IsNonwritableInCurrentImage 0000000180019e10 f   MSVCRT:pesect.obj
 0001:00018e60       _ValidateImageBase         0000000180019e60 f   MSVCRT:pesect.obj
 0001:00018e90       __atonexitinit             0000000180019e90 f   MSVCRT:atonexit.obj
 0001:00018ee0       _onexit                    0000000180019ee0 f   MSVCRT:atonexit.obj
 0001:00018f90       atexit                     0000000180019f90 f   MSVCRT:atonexit.obj
 0001:00018fa8       __security_init_cookie     0000000180019fa8 f   MSVCRT:gs_support.obj
 0001:00019054       DllMain                    000000018001a054 f   MSVCRT:dllmain.obj
 0001:00019078       _malloc_crt                000000018001a078 f   MSVCRT:MSVCR110.dll
 0001:00019080       _RTC_Initialize            000000018001a080 f   MSVCRT:initsect.obj
 0001:000190b8       _RTC_Terminate             000000018001a0b8 f   MSVCRT:initsect.obj
 0001:000190f0       _initterm                  000000018001a0f0 f   MSVCRT:MSVCR110.dll
 0001:000190f6       _initterm_e                000000018001a0f6 f   MSVCRT:MSVCR110.dll
 0001:000190fc       __clean_type_info_names    000000018001a0fc f   MSVCRT:tncleanup.obj
 0001:00019108       __C_specific_handler       000000018001a108 f   MSVCRT:MSVCR110.dll
 0001:0001910e       _lock                      000000018001a10e f   MSVCRT:MSVCR110.dll
 0001:00019114       _unlock                    000000018001a114 f   MSVCRT:MSVCR110.dll
 0001:0001911a       _calloc_crt                000000018001a11a f   MSVCRT:MSVCR110.dll
 0001:00019120       __dllonexit                000000018001a120 f   MSVCRT:MSVCR110.dll
 0001:00019126       __clean_type_info_names_internal 000000018001a126 f   MSVCRT:MSVCR110.dll
 0001:0001912c       IsDebuggerPresent          000000018001a12c f   kernel32:KERNEL32.dll
 0001:00019132       IsProcessorFeaturePresent  000000018001a132 f   kernel32:KERNEL32.dll
 0001:00019138       EncodePointer              000000018001a138 f   kernel32:KERNEL32.dll
 0001:0001913e       DecodePointer              000000018001a13e f   kernel32:KERNEL32.dll
 0001:00019144       QueryPerformanceCounter    000000018001a144 f   kernel32:KERNEL32.dll
 0001:0001914a       GetCurrentProcessId        000000018001a14a f   kernel32:KERNEL32.dll
 0001:00019150       GetCurrentThreadId         000000018001a150 f   kernel32:KERNEL32.dll
 0001:00019156       GetSystemTimeAsFileTime    000000018001a156 f   kernel32:KERNEL32.dll
 0001:0001915c       DisableThreadLibraryCalls  000000018001a15c f   kernel32:KERNEL32.dll
 0002:00000000       __imp_DisableThreadLibraryCalls 000000018001b000     kernel32:KERNEL32.dll
 0002:00000008       __imp_GetSystemTimeAsFileTime 000000018001b008     kernel32:KERNEL32.dll
 0002:00000010       __imp_GetCurrentThreadId   000000018001b010     kernel32:KERNEL32.dll
 0002:00000018       __imp_GetCurrentProcessId  000000018001b018     kernel32:KERNEL32.dll
 0002:00000020       __imp_QueryPerformanceCounter 000000018001b020     kernel32:KERNEL32.dll
 0002:00000028       __imp_DecodePointer        000000018001b028     kernel32:KERNEL32.dll
 0002:00000030       __imp_EncodePointer        000000018001b030     kernel32:KERNEL32.dll
 0002:00000038       __imp_IsProcessorFeaturePresent 000000018001b038     kernel32:KERNEL32.dll
 0002:00000040       __imp_IsDebuggerPresent    000000018001b040     kernel32:KERNEL32.dll
 0002:00000048       \177KERNEL32_NULL_THUNK_DATA 000000018001b048     kernel32:KERNEL32.dll
 0002:00000050       __imp___clean_type_info_names_internal 000000018001b050     MSVCRT:MSVCR110.dll
 0002:00000058       __imp__onexit              000000018001b058     MSVCRT:MSVCR110.dll
 0002:00000060       __imp___dllonexit          000000018001b060     MSVCRT:MSVCR110.dll
 0002:00000068       __imp__calloc_crt          000000018001b068     MSVCRT:MSVCR110.dll
 0002:00000070       __imp__unlock              000000018001b070     MSVCRT:MSVCR110.dll
 0002:00000078       __imp__lock                000000018001b078     MSVCRT:MSVCR110.dll
 0002:00000080       __imp___C_specific_handler 000000018001b080     MSVCRT:MSVCR110.dll
 0002:00000088       __imp__initterm_e          000000018001b088     MSVCRT:MSVCR110.dll
 0002:00000090       __imp__initterm            000000018001b090     MSVCRT:MSVCR110.dll
 0002:00000098       __imp__malloc_crt          000000018001b098     MSVCRT:MSVCR110.dll
 0002:000000a0       __imp__amsg_exit           000000018001b0a0     MSVCRT:MSVCR110.dll
 0002:000000a8       __imp___CppXcptFilter      000000018001b0a8     MSVCRT:MSVCR110.dll
 0002:000000b0       __imp___crtCapturePreviousContext 000000018001b0b0     MSVCRT:MSVCR110.dll
 0002:000000b8       __imp___crtCaptureCurrentContext 000000018001b0b8     MSVCRT:MSVCR110.dll
 0002:000000c0       __imp___crtTerminateProcess 000000018001b0c0     MSVCRT:MSVCR110.dll
 0002:000000c8       __imp___crtUnhandledException 000000018001b0c8     MSVCRT:MSVCR110.dll
 0002:000000d0       __imp___crt_debugger_hook  000000018001b0d0     MSVCRT:MSVCR110.dll
 0002:000000d8       __imp_malloc               000000018001b0d8     MSVCRT:MSVCR110.dll
 0002:000000e0       __imp_free                 000000018001b0e0     MSVCRT:MSVCR110.dll
 0002:000000e8       __imp_sprintf              000000018001b0e8     MSVCRT:MSVCR110.dll
 0002:000000f0       __imp_strcat               000000018001b0f0     MSVCRT:MSVCR110.dll
 0002:000000f8       __imp_memcpy               000000018001b0f8     MSVCRT:MSVCR110.dll
 0002:00000100       __imp_strlen               000000018001b100     MSVCRT:MSVCR110.dll
 0002:00000108       __imp_memset               000000018001b108     MSVCRT:MSVCR110.dll
 0002:00000110       __imp_strcmp               000000018001b110     MSVCRT:MSVCR110.dll
 0002:00000118       \177MSVCR110_NULL_THUNK_DATA 000000018001b118     MSVCRT:MSVCR110.dll
 0002:00000120       __imp_mexIsLocked          000000018001b120     libmex:libmex.dll
 0002:00000128       __imp_mexErrMsgTxt         000000018001b128     libmex:libmex.dll
 0002:00000130       __imp_mexWarnMsgTxt        000000018001b130     libmex:libmex.dll
 0002:00000138       __imp_mexCallMATLABWithObject 000000018001b138     libmex:libmex.dll
 0002:00000140       __imp_mexLock              000000018001b140     libmex:libmex.dll
 0002:00000148       __imp_mexMakeArrayPersistent 000000018001b148     libmex:libmex.dll
 0002:00000150       __imp_mexUnlock            000000018001b150     libmex:libmex.dll
 0002:00000158       \177libmex_NULL_THUNK_DATA 000000018001b158     libmex:libmex.dll
 0002:00000160       __imp_muDoubleScalarCos    000000018001b160     libmwmathutil:libmwmathutil.dll
 0002:00000168       __imp_muDoubleScalarSin    000000018001b168     libmwmathutil:libmwmathutil.dll
 0002:00000170       __imp_muDoubleScalarAtan2  000000018001b170     libmwmathutil:libmwmathutil.dll
 0002:00000178       __imp_muDoubleScalarAbs    000000018001b178     libmwmathutil:libmwmathutil.dll
 0002:00000180       \177libmwmathutil_NULL_THUNK_DATA 000000018001b180     libmwmathutil:libmwmathutil.dll
 0002:00000188       __imp_mxGetN               000000018001b188     libmx:libmx.dll
 0002:00000190       __imp_mxIsComplex          000000018001b190     libmx:libmx.dll
 0002:00000198       __imp_mxIsNumeric          000000018001b198     libmx:libmx.dll
 0002:000001a0       __imp_mxGetClassID         000000018001b1a0     libmx:libmx.dll
 0002:000001a8       __imp_mxGetM               000000018001b1a8     libmx:libmx.dll
 0002:000001b0       __imp_mxCalloc             000000018001b1b0     libmx:libmx.dll
 0002:000001b8       __imp_mxCreateStructArray_730 000000018001b1b8     libmx:libmx.dll
 0002:000001c0       __imp_mxCreateStructMatrix_730 000000018001b1c0     libmx:libmx.dll
 0002:000001c8       __imp_mxCreateCellArray_730 000000018001b1c8     libmx:libmx.dll
 0002:000001d0       __imp_mxCreateCellMatrix_730 000000018001b1d0     libmx:libmx.dll
 0002:000001d8       __imp_mxCreateString       000000018001b1d8     libmx:libmx.dll
 0002:000001e0       __imp_mxCreateDoubleScalar 000000018001b1e0     libmx:libmx.dll
 0002:000001e8       __imp_mxSetField_730       000000018001b1e8     libmx:libmx.dll
 0002:000001f0       __imp_mxDuplicateArray     000000018001b1f0     libmx:libmx.dll
 0002:000001f8       __imp_mxGetString_730      000000018001b1f8     libmx:libmx.dll
 0002:00000200       __imp_mxCreateLogicalScalar 000000018001b200     libmx:libmx.dll
 0002:00000208       __imp_mxCreateDoubleMatrix_730 000000018001b208     libmx:libmx.dll
 0002:00000210       __imp_mxDestroyArray       000000018001b210     libmx:libmx.dll
 0002:00000218       __imp_mxGetScalar          000000018001b218     libmx:libmx.dll
 0002:00000220       __imp_mxGetPr              000000018001b220     libmx:libmx.dll
 0002:00000228       __imp_mxIsChar             000000018001b228     libmx:libmx.dll
 0002:00000230       \177libmx_NULL_THUNK_DATA  000000018001b230     libmx:libmx.dll
 0002:00000238       __imp_utMalloc             000000018001b238     libut:libut.dll
 0002:00000240       __imp_utFree               000000018001b240     libut:libut.dll
 0002:00000248       \177libut_NULL_THUNK_DATA  000000018001b248     libut:libut.dll
 0002:00000250       __imp_sf_debug_create_debug_instance_struct 000000018001b250     sf_runtime:sf_runtime.dll
 0002:00000258       __imp_sf_clear_error_manager_info 000000018001b258     sf_runtime:sf_runtime.dll
 0002:00000260       __imp_sf_mex_error_direct_call 000000018001b260     sf_runtime:sf_runtime.dll
 0002:00000268       __imp_call_sf_machine_global_method_dispatcher 000000018001b268     sf_runtime:sf_runtime.dll
 0002:00000270       __imp_callMdlMethodAndReportError 000000018001b270     sf_runtime:sf_runtime.dll
 0002:00000278       __imp_sf_mex_call_debug    000000018001b278     sf_runtime:sf_runtime.dll
 0002:00000280       __imp_sf_mex_printf        000000018001b280     sf_runtime:sf_runtime.dll
 0002:00000288       __imp_sf_debug_set_script_translation 000000018001b288     sf_runtime:sf_runtime.dll
 0002:00000290       __imp_sf_debug_get_script_id 000000018001b290     sf_runtime:sf_runtime.dll
 0002:00000298       __imp_sf_debug_cv_init_state 000000018001b298     sf_runtime:sf_runtime.dll
 0002:000002a0       __imp_sf_debug_cv_init_chart 000000018001b2a0     sf_runtime:sf_runtime.dll
 0002:000002a8       __imp_sf_debug_cv_init_trans 000000018001b2a8     sf_runtime:sf_runtime.dll
 0002:000002b0       __imp_sf_debug_data_range_wrapper 000000018001b2b0     sf_runtime:sf_runtime.dll
 0002:000002b8       __imp_sf_debug_set_chart_substate_count 000000018001b2b8     sf_runtime:sf_runtime.dll
 0002:000002c0       __imp_sf_debug_terminate   000000018001b2c0     sf_runtime:sf_runtime.dll
 0002:000002c8       __imp_sf_debug_set_chart_state_info 000000018001b2c8     sf_runtime:sf_runtime.dll
 0002:000002d0       __imp_sf_debug_set_chart_event_thresholds 000000018001b2d0     sf_runtime:sf_runtime.dll
 0002:000002d8       __imp_sf_debug_set_chart_disable_implicit_casting 000000018001b2d8     sf_runtime:sf_runtime.dll
 0002:000002e0       __imp_sf_debug_set_instance_data_value_ptr 000000018001b2e0     sf_runtime:sf_runtime.dll
 0002:000002e8       __imp_sf_debug_symbol_scope_add_eml_importable 000000018001b2e8     sf_runtime:sf_runtime.dll
 0002:000002f0       __imp_sf_debug_symbol_scope_add_eml 000000018001b2f0     sf_runtime:sf_runtime.dll
 0002:000002f8       __imp_sf_debug_symbol_scope_pop 000000018001b2f8     sf_runtime:sf_runtime.dll
 0002:00000300       __imp_sf_debug_symbol_scope_push_eml 000000018001b300     sf_runtime:sf_runtime.dll
 0002:00000308       __imp_sf_debug_symbol_scope_push 000000018001b308     sf_runtime:sf_runtime.dll
 0002:00000310       __imp_sf_debug_set_chart_data_compiled_props 000000018001b310     sf_runtime:sf_runtime.dll
 0002:00000318       __imp_sf_debug_set_chart_data_props 000000018001b318     sf_runtime:sf_runtime.dll
 0002:00000320       __imp_sf_debug_check_for_state_inconsistency 000000018001b320     sf_runtime:sf_runtime.dll
 0002:00000328       __imp_sf_debug_reset_current_state_configuration 000000018001b328     sf_runtime:sf_runtime.dll
 0002:00000330       __imp_cv_script_init_fcn   000000018001b330     sf_runtime:sf_runtime.dll
 0002:00000338       __imp_sf_debug_set_chart_decomposition 000000018001b338     sf_runtime:sf_runtime.dll
 0002:00000340       __imp_sf_debug_api         000000018001b340     sf_runtime:sf_runtime.dll
 0002:00000348       __imp_cv_script_init_script 000000018001b348     sf_runtime:sf_runtime.dll
 0002:00000350       __imp_cv_script_eval       000000018001b350     sf_runtime:sf_runtime.dll
 0002:00000358       __imp_cv_eml_init_relational 000000018001b358     sf_runtime:sf_runtime.dll
 0002:00000360       __imp_cv_eml_init_if       000000018001b360     sf_runtime:sf_runtime.dll
 0002:00000368       __imp_cv_eml_init_fcn      000000018001b368     sf_runtime:sf_runtime.dll
 0002:00000370       __imp_cv_eml_init_script   000000018001b370     sf_runtime:sf_runtime.dll
 0002:00000378       __imp_cv_eval_relational   000000018001b378     sf_runtime:sf_runtime.dll
 0002:00000380       __imp_cv_eml_eval          000000018001b380     sf_runtime:sf_runtime.dll
 0002:00000388       __imp_eml_debug_line_call  000000018001b388     sf_runtime:sf_runtime.dll
 0002:00000390       __imp_sf_debug_call        000000018001b390     sf_runtime:sf_runtime.dll
 0002:00000398       __imp_sf_debug_initialize_chart 000000018001b398     sf_runtime:sf_runtime.dll
 0002:000003a0       __imp_ssGetOutputPortSignal_wrapper 000000018001b3a0     sf_runtime:sf_runtime.dll
 0002:000003a8       __imp_ssGetInputPortSignal_wrapper 000000018001b3a8     sf_runtime:sf_runtime.dll
 0002:000003b0       __imp_sf_mex_emlrtNameCapturePostProcessR2012a 000000018001b3b0     sf_runtime:sf_runtime.dll
 0002:000003b8       __imp_sf_mex_duplicatearraysafe 000000018001b3b8     sf_runtime:sf_runtime.dll
 0002:000003c0       __imp_sf_mex_decode_encoded_mx_struct_array 000000018001b3c0     sf_runtime:sf_runtime.dll
 0002:000003c8       __imp_sf_mex_import        000000018001b3c8     sf_runtime:sf_runtime.dll
 0002:000003d0       __imp_sf_mex_destroy       000000018001b3d0     sf_runtime:sf_runtime.dll
 0002:000003d8       __imp_sf_mex_dup           000000018001b3d8     sf_runtime:sf_runtime.dll
 0002:000003e0       __imp_sf_mex_assign        000000018001b3e0     sf_runtime:sf_runtime.dll
 0002:000003e8       __imp_sf_mex_getcell       000000018001b3e8     sf_runtime:sf_runtime.dll
 0002:000003f0       __imp_sf_mex_setcell       000000018001b3f0     sf_runtime:sf_runtime.dll
 0002:000003f8       __imp_sf_mex_createcellmatrix 000000018001b3f8     sf_runtime:sf_runtime.dll
 0002:00000400       __imp_sf_mex_create        000000018001b400     sf_runtime:sf_runtime.dll
 0002:00000408       __imp_sf_mex_createstruct  000000018001b408     sf_runtime:sf_runtime.dll
 0002:00000410       __imp_sf_mex_addfield      000000018001b410     sf_runtime:sf_runtime.dll
 0002:00000418       __imp_sf_mex_error_message 000000018001b418     sf_runtime:sf_runtime.dll
 0002:00000420       __imp_sf_get_time          000000018001b420     sf_runtime:sf_runtime.dll
 0002:00000428       __imp_sf_set_rtw_dwork_info 000000018001b428     sf_runtime:sf_runtime.dll
 0002:00000430       __imp_sf_clear_rtw_identifier 000000018001b430     sf_runtime:sf_runtime.dll
 0002:00000438       __imp_sim_mode_is_external 000000018001b438     sf_runtime:sf_runtime.dll
 0002:00000440       __imp_sim_mode_is_rtw_gen  000000018001b440     sf_runtime:sf_runtime.dll
 0002:00000448       __imp_sf_mark_chart_expressionable_inputs 000000018001b448     sf_runtime:sf_runtime.dll
 0002:00000450       __imp_sf_mark_chart_reusable_outputs 000000018001b450     sf_runtime:sf_runtime.dll
 0002:00000458       __imp_sf_is_chart_inlinable 000000018001b458     sf_runtime:sf_runtime.dll
 0002:00000460       __imp_sf_update_buildInfo  000000018001b460     sf_runtime:sf_runtime.dll
 0002:00000468       __imp_sf_rtw_info_uint_prop 000000018001b468     sf_runtime:sf_runtime.dll
 0002:00000470       __imp_sf_debug_set_machine_data_thresholds 000000018001b470     sf_runtime:sf_runtime.dll
 0002:00000478       __imp_sf_debug_set_machine_event_thresholds 000000018001b478     sf_runtime:sf_runtime.dll
 0002:00000480       __imp_sf_debug_initialize_machine 000000018001b480     sf_runtime:sf_runtime.dll
 0002:00000488       __imp_sf_load_rtw_optimization_info 000000018001b488     sf_runtime:sf_runtime.dll
 0002:00000490       \177sf_runtime_NULL_THUNK_DATA 000000018001b490     sf_runtime:sf_runtime.dll
 0002:00000498       __xc_a                     000000018001b498     MSVCRT:cinitexe.obj
 0002:000004a0       __xc_z                     000000018001b4a0     MSVCRT:cinitexe.obj
 0002:000004a8       __xi_a                     000000018001b4a8     MSVCRT:cinitexe.obj
 0002:000004c0       __xi_z                     000000018001b4c0     MSVCRT:cinitexe.obj
 0002:000004d0       __real@41ae173ee6000000    000000018001b4d0     test_sfun.obj
 0002:000004d8       __real@41c537a2b3000000    000000018001b4d8     test_sfun.obj
 0002:000004e0       __real@41d6a601ea000000    000000018001b4e0     test_sfun.obj
 0002:000004e8       __real@41ddae3573400000    000000018001b4e8     test_sfun.obj
 0002:000004f0       __real@41dfad085a400000    000000018001b4f0     test_sfun.obj
 0002:000004f8       __real@41e1914a24400000    000000018001b4f8     test_sfun.obj
 0002:00000500       __real@41e34c0f59c00000    000000018001b500     test_sfun.obj
 0002:00000508       __real@41e57402daa00000    000000018001b508     test_sfun.obj
 0002:00000510       __real@41e6cf0aa2400000    000000018001b510     test_sfun.obj
 0002:00000518       __real@41e88817ee000000    000000018001b518     test_sfun.obj
 0002:00000520       __real@41ea08c70b800000    000000018001b520     test_sfun.obj
 0002:00000528       __real@41ead1319ec00000    000000018001b528     test_sfun.obj
 0002:00000530       __real@41eaef73f6400000    000000018001b530     test_sfun.obj
 0002:00000538       __real@41ec49254aa00000    000000018001b538     test_sfun.obj
 0002:00000540       __real@41ecfe873a000000    000000018001b540     test_sfun.obj
 0002:00000548       __real@41ef0d6d4fc00000    000000018001b548     test_sfun.obj
 0002:00000550       __real@0000000000000000    000000018001b550     c1_test.obj
 0002:00000558       __real@3f847ae147ae147b    000000018001b558     c1_test.obj
 0002:00000560       __real@3fac990d829f820f    000000018001b560     c1_test.obj
 0002:00000568       __real@3fac990d829f8211    000000018001b568     c1_test.obj
 0002:00000570       __real@3fb236d7786d44f3    000000018001b570     c1_test.obj
 0002:00000578       __real@3fb352a843808851    000000018001b578     c1_test.obj
 0002:00000580       __real@3ff0000000000000    000000018001b580     c1_test.obj
 0002:00000588       __real@4000000000000000    000000018001b588     c1_test.obj
 0002:00000590       __real@4010000000000000    000000018001b590     c1_test.obj
 0002:00000598       __real@4014000000000000    000000018001b598     c1_test.obj
 0002:000005a0       __real@4018000000000000    000000018001b5a0     c1_test.obj
 0002:000005a8       __real@4020000000000000    000000018001b5a8     c1_test.obj
 0002:000005b0       __real@4024000000000000    000000018001b5b0     c1_test.obj
 0002:000005b8       __real@4039000000000000    000000018001b5b8     c1_test.obj
 0002:000005c0       __real@4042800000000000    000000018001b5c0     c1_test.obj
 0002:000005c8       __real@4049000000000000    000000018001b5c8     c1_test.obj
 0002:000005d0       __real@405bc00000000000    000000018001b5d0     c1_test.obj
 0002:000005d8       __real@406f400000000000    000000018001b5d8     c1_test.obj
 0002:000005e0       __real@41910739a0000000    000000018001b5e0     c1_test.obj
 0002:000005e8       __real@41a88dca0e000000    000000018001b5e8     c1_test.obj
 0002:000005f0       __real@41e20b264c400000    000000018001b5f0     c1_test.obj
 0002:000005f8       __real@41e93dc8ec400000    000000018001b5f8     c1_test.obj
 0002:00000600       __xmm@80000000000000008000000000000000 000000018001b600     c1_test.obj
 0002:00000610       __real@3ee537e1ace54e3e    000000018001b610     c2_test.obj
 0002:00000618       __real@3ee8df41805c1b10    000000018001b618     c2_test.obj
 0002:00000620       __real@3eed01e4391b6d76    000000018001b620     c2_test.obj
 0002:00000628       __real@3ef0a1e80f99e70a    000000018001b628     c2_test.obj
 0002:00000630       __real@3ff0c152382d7365    000000018001b630     c2_test.obj
 0002:00000638       __real@4185040738000000    000000018001b638     c2_test.obj
 0002:00000640       __real@41ad1a0740000000    000000018001b640     c2_test.obj
 0002:00000648       __real@41d34ae4d3c00000    000000018001b648     c2_test.obj
 0002:00000650       __real@41e0ffe661400000    000000018001b650     c2_test.obj
 0002:00000660       DYNAMIC_DIMENSION_DEF      000000018001b660     test_sfun_registry.obj
 0002:00000680       _ssBadLevel2InputAccessMsg 000000018001b680     test_sfun_registry.obj
 0002:00000810       _ssBadLevel2DirectFeedMsg  000000018001b810     test_sfun_registry.obj
 0002:00000950       _ssBadLevel2DirectFeedSolutionMsg 000000018001b950     test_sfun_registry.obj
 0002:000009c0       _ssBadLevel2ZeroDirectFeedMsg 000000018001b9c0     test_sfun_registry.obj
 0002:00000b00       _ssBadLevel2ZeroDirectFeedMsg2 000000018001bb00     test_sfun_registry.obj
 0002:00000be8       __real@41602cbca0000000    000000018001bbe8     test_sfun_registry.obj
 0002:00000bf0       __real@bff0000000000000    000000018001bbf0     test_sfun_registry.obj
 0002:00000c08       _pDefaultRawDllMain        000000018001bc08     MSVCRT:crtdll.obj
 0002:00000c08       _pRawDllMain               000000018001bc08     MSVCRT:crtdll.obj
 0002:00000c10       ?ProcessDetach@NativeDll@<CrtImplementationDetails>@@0IB 000000018001bc10     MSVCRT:initsect.obj
 0002:00000c14       ?ProcessAttach@NativeDll@<CrtImplementationDetails>@@0IB 000000018001bc14     MSVCRT:initsect.obj
 0002:00000c18       ?ThreadAttach@NativeDll@<CrtImplementationDetails>@@0IB 000000018001bc18     MSVCRT:initsect.obj
 0002:00000c1c       ?ThreadDetach@NativeDll@<CrtImplementationDetails>@@0IB 000000018001bc1c     MSVCRT:initsect.obj
 0002:00000c20       ?ProcessVerifier@NativeDll@<CrtImplementationDetails>@@0IB 000000018001bc20     MSVCRT:initsect.obj
 0002:00000c24       ?value@?$integral_constant@_N$0A@@std@@2_NB 000000018001bc24     MSVCRT:tncleanup.obj
 0002:00000c25       ?value@?$integral_constant@_N$00@std@@2_NB 000000018001bc25     MSVCRT:tncleanup.obj
 0002:00000c28       ?value@?$_Sizeof@U_Nil@std@@U12@U12@U12@U12@U12@U12@U12@@std@@2_KB 000000018001bc28     MSVCRT:tncleanup.obj
 0002:00000c30       _load_config_used          000000018001bc30     MSVCRT:loadcfg.obj
 0002:00000ca0       __rtc_iaa                  000000018001bca0     MSVCRT:initsect.obj
 0002:00000ca8       __rtc_izz                  000000018001bca8     MSVCRT:initsect.obj
 0002:00000cb0       __rtc_taa                  000000018001bcb0     MSVCRT:initsect.obj
 0002:00000cb8       __rtc_tzz                  000000018001bcb8     MSVCRT:initsect.obj
 0002:000015ac       __IMPORT_DESCRIPTOR_sf_runtime 000000018001c5ac     sf_runtime:sf_runtime.dll
 0002:000015c0       __IMPORT_DESCRIPTOR_libmx  000000018001c5c0     libmx:libmx.dll
 0002:000015d4       __IMPORT_DESCRIPTOR_libmex 000000018001c5d4     libmex:libmex.dll
 0002:000015e8       __IMPORT_DESCRIPTOR_libut  000000018001c5e8     libut:libut.dll
 0002:000015fc       __IMPORT_DESCRIPTOR_libmwmathutil 000000018001c5fc     libmwmathutil:libmwmathutil.dll
 0002:00001610       __IMPORT_DESCRIPTOR_MSVCR110 000000018001c610     MSVCRT:MSVCR110.dll
 0002:00001624       __IMPORT_DESCRIPTOR_KERNEL32 000000018001c624     kernel32:KERNEL32.dll
 0002:00001638       __NULL_IMPORT_DESCRIPTOR   000000018001c638     sf_runtime:sf_runtime.dll
 0003:00005228       DYNAMIC_DIMENSION          0000000180023228     test_sfun_registry.obj
 0003:00005ee0       __security_cookie          0000000180023ee0     MSVCRT:gs_cookie.obj
 0003:00005ee8       __security_cookie_complement 0000000180023ee8     MSVCRT:gs_cookie.obj
 0003:00005ef0       _fltused                   0000000180023ef0     MSVCRT:dllsupp.obj
 0003:00005ef4       __native_dllmain_reason    0000000180023ef4     MSVCRT:natstart.obj
 0003:00005f38       sfGlobalDebugInstanceStruct 0000000180023f38     test_sfun_registry.obj
 0003:00006598       ?__type_info_root_node@@3U__type_info_node@@A 0000000180024598     MSVCRT:tncleanup.obj
 0003:000065a8       _testMachineNumber_        00000001800245a8     <common>
 0003:000065b0       __native_startup_lock      00000001800245b0     <common>
 0003:000065b8       __native_startup_state     00000001800245b8     <common>
 0003:000065c0       __onexitend                00000001800245c0     <common>
 0003:000065c8       __onexitbegin              00000001800245c8     <common>
 0003:000065d0       __dyn_tls_init_callback    00000001800245d0     <common>

 entry point at        0001:00018c14

 Static symbols

 0000:00000000       .debug$S                   0000000180000000     kernel32:KERNEL32.dll
 0000:00000000       .debug$S                   0000000180000000     kernel32:KERNEL32.dll
 0000:00000000       .debug$S                   0000000180000000     kernel32:KERNEL32.dll
 0000:00000000       .debug$S                   0000000180000000     kernel32:KERNEL32.dll
 0000:00000000       .debug$S                   0000000180000000     kernel32:KERNEL32.dll
 0000:00000000       .debug$S                   0000000180000000     kernel32:KERNEL32.dll
 0000:00000000       .debug$S                   0000000180000000     kernel32:KERNEL32.dll
 0000:00000000       .debug$S                   0000000180000000     kernel32:KERNEL32.dll
 0000:00000000       .debug$S                   0000000180000000     kernel32:KERNEL32.dll
 0000:00000000       .debug$S                   0000000180000000     sf_runtime:sf_runtime.dll
 0000:00000000       .debug$S                   0000000180000000     MSVCRT:MSVCR110.dll
 0000:00000000       .debug$S                   0000000180000000     MSVCRT:MSVCR110.dll
 0000:00000000       .debug$S                   0000000180000000     MSVCRT:MSVCR110.dll
 0000:00000000       .debug$S                   0000000180000000     MSVCRT:MSVCR110.dll
 0000:00000000       .debug$S                   0000000180000000     MSVCRT:MSVCR110.dll
 0000:00000000       .debug$S                   0000000180000000     MSVCRT:MSVCR110.dll
 0000:00000000       .debug$S                   0000000180000000     MSVCRT:MSVCR110.dll
 0000:00000000       .debug$S                   0000000180000000     MSVCRT:MSVCR110.dll
 0000:00000000       .debug$S                   0000000180000000     MSVCRT:MSVCR110.dll
 0000:00000000       .debug$S                   0000000180000000     MSVCRT:MSVCR110.dll
 0000:00000000       .debug$S                   0000000180000000     MSVCRT:MSVCR110.dll
 0000:00000000       .debug$S                   0000000180000000     MSVCRT:MSVCR110.dll
 0000:00000000       .debug$S                   0000000180000000     MSVCRT:MSVCR110.dll
 0000:00000000       .debug$S                   0000000180000000     MSVCRT:MSVCR110.dll
 0000:00000000       .debug$S                   0000000180000000     MSVCRT:MSVCR110.dll
 0000:00000000       .debug$S                   0000000180000000     MSVCRT:MSVCR110.dll
 0000:00000000       .debug$S                   0000000180000000     MSVCRT:MSVCR110.dll
 0000:00000000       .debug$S                   0000000180000000     MSVCRT:MSVCR110.dll
 0000:00000000       .debug$S                   0000000180000000     MSVCRT:MSVCR110.dll
 0000:00000000       .debug$S                   0000000180000000     MSVCRT:MSVCR110.dll
 0000:00000000       .debug$S                   0000000180000000     MSVCRT:MSVCR110.dll
 0000:00000000       .debug$S                   0000000180000000     MSVCRT:MSVCR110.dll
 0000:00000000       .debug$S                   0000000180000000     MSVCRT:MSVCR110.dll
 0000:00000000       .debug$S                   0000000180000000     MSVCRT:MSVCR110.dll
 0000:00000000       .debug$S                   0000000180000000     MSVCRT:MSVCR110.dll
 0000:00000000       .debug$S                   0000000180000000     sf_runtime:sf_runtime.dll
 0000:00000000       .debug$S                   0000000180000000     sf_runtime:sf_runtime.dll
 0000:00000000       .debug$S                   0000000180000000     sf_runtime:sf_runtime.dll
 0000:00000000       .debug$S                   0000000180000000     sf_runtime:sf_runtime.dll
 0000:00000000       .debug$S                   0000000180000000     sf_runtime:sf_runtime.dll
 0000:00000000       .debug$S                   0000000180000000     sf_runtime:sf_runtime.dll
 0000:00000000       .debug$S                   0000000180000000     sf_runtime:sf_runtime.dll
 0000:00000000       .debug$S                   0000000180000000     sf_runtime:sf_runtime.dll
 0000:00000000       .debug$S                   0000000180000000     sf_runtime:sf_runtime.dll
 0000:00000000       .debug$S                   0000000180000000     sf_runtime:sf_runtime.dll
 0000:00000000       .debug$S                   0000000180000000     sf_runtime:sf_runtime.dll
 0000:00000000       .debug$S                   0000000180000000     sf_runtime:sf_runtime.dll
 0000:00000000       .debug$S                   0000000180000000     sf_runtime:sf_runtime.dll
 0000:00000000       .debug$S                   0000000180000000     sf_runtime:sf_runtime.dll
 0000:00000000       .debug$S                   0000000180000000     sf_runtime:sf_runtime.dll
 0000:00000000       .debug$S                   0000000180000000     sf_runtime:sf_runtime.dll
 0000:00000000       .debug$S                   0000000180000000     sf_runtime:sf_runtime.dll
 0000:00000000       .debug$S                   0000000180000000     sf_runtime:sf_runtime.dll
 0000:00000000       .debug$S                   0000000180000000     sf_runtime:sf_runtime.dll
 0000:00000000       .debug$S                   0000000180000000     sf_runtime:sf_runtime.dll
 0000:00000000       .debug$S                   0000000180000000     sf_runtime:sf_runtime.dll
 0000:00000000       .debug$S                   0000000180000000     sf_runtime:sf_runtime.dll
 0000:00000000       .debug$S                   0000000180000000     sf_runtime:sf_runtime.dll
 0000:00000000       .debug$S                   0000000180000000     sf_runtime:sf_runtime.dll
 0000:00000000       .debug$S                   0000000180000000     sf_runtime:sf_runtime.dll
 0000:00000000       .debug$S                   0000000180000000     sf_runtime:sf_runtime.dll
 0000:00000000       .debug$S                   0000000180000000     sf_runtime:sf_runtime.dll
 0000:00000000       .debug$S                   0000000180000000     sf_runtime:sf_runtime.dll
 0000:00000000       .debug$S                   0000000180000000     sf_runtime:sf_runtime.dll
 0000:00000000       .debug$S                   0000000180000000     sf_runtime:sf_runtime.dll
 0000:00000000       .debug$S                   0000000180000000     sf_runtime:sf_runtime.dll
 0000:00000000       .debug$S                   0000000180000000     libmx:libmx.dll
 0000:00000000       .debug$S                   0000000180000000     sf_runtime:sf_runtime.dll
 0000:00000000       .debug$S                   0000000180000000     libmx:libmx.dll
 0000:00000000       .debug$S                   0000000180000000     sf_runtime:sf_runtime.dll
 0000:00000000       .debug$S                   0000000180000000     libmx:libmx.dll
 0000:00000000       .debug$S                   0000000180000000     libmwmathutil:libmwmathutil.dll
 0000:00000000       .debug$S                   0000000180000000     libmwmathutil:libmwmathutil.dll
 0000:00000000       .debug$S                   0000000180000000     libmwmathutil:libmwmathutil.dll
 0000:00000000       .debug$S                   0000000180000000     libmwmathutil:libmwmathutil.dll
 0000:00000000       .debug$S                   0000000180000000     sf_runtime:sf_runtime.dll
 0000:00000000       .debug$S                   0000000180000000     libut:libut.dll
 0000:00000000       .debug$S                   0000000180000000     libut:libut.dll
 0000:00000000       .debug$S                   0000000180000000     libmx:libmx.dll
 0000:00000000       .debug$S                   0000000180000000     libmex:libmex.dll
 0000:00000000       .debug$S                   0000000180000000     libmex:libmex.dll
 0000:00000000       .debug$S                   0000000180000000     libmex:libmex.dll
 0000:00000000       .debug$S                   0000000180000000     libmex:libmex.dll
 0000:00000000       .debug$S                   0000000180000000     libmex:libmex.dll
 0000:00000000       .debug$S                   0000000180000000     libmex:libmex.dll
 0000:00000000       .debug$S                   0000000180000000     libmex:libmex.dll
 0000:00000000       .debug$S                   0000000180000000     sf_runtime:sf_runtime.dll
 0000:00000000       .debug$S                   0000000180000000     libmx:libmx.dll
 0000:00000000       .debug$S                   0000000180000000     libmx:libmx.dll
 0000:00000000       .debug$S                   0000000180000000     libmx:libmx.dll
 0000:00000000       .debug$S                   0000000180000000     libmx:libmx.dll
 0000:00000000       .debug$S                   0000000180000000     libmx:libmx.dll
 0000:00000000       .debug$S                   0000000180000000     libmx:libmx.dll
 0000:00000000       .debug$S                   0000000180000000     libmx:libmx.dll
 0000:00000000       .debug$S                   0000000180000000     libmx:libmx.dll
 0000:00000000       .debug$S                   0000000180000000     libmx:libmx.dll
 0000:00000000       .debug$S                   0000000180000000     libmx:libmx.dll
 0000:00000000       .debug$S                   0000000180000000     libmx:libmx.dll
 0000:00000000       .debug$S                   0000000180000000     libmx:libmx.dll
 0000:00000000       .debug$S                   0000000180000000     libmx:libmx.dll
 0000:00000000       .debug$S                   0000000180000000     libmx:libmx.dll
 0000:00000000       .debug$S                   0000000180000000     libmx:libmx.dll
 0000:00000000       .debug$S                   0000000180000000     sf_runtime:sf_runtime.dll
 0000:00000000       .debug$S                   0000000180000000     libmx:libmx.dll
 0000:00000000       .debug$S                   0000000180000000     sf_runtime:sf_runtime.dll
 0000:00000000       .debug$S                   0000000180000000     libmx:libmx.dll
 0000:00000000       .debug$S                   0000000180000000     sf_runtime:sf_runtime.dll
 0000:00000000       .debug$S                   0000000180000000     sf_runtime:sf_runtime.dll
 0000:00000000       .debug$S                   0000000180000000     sf_runtime:sf_runtime.dll
 0000:00000000       .debug$S                   0000000180000000     sf_runtime:sf_runtime.dll
 0000:00000000       .debug$S                   0000000180000000     sf_runtime:sf_runtime.dll
 0000:00000000       .debug$S                   0000000180000000     sf_runtime:sf_runtime.dll
 0000:00000000       .debug$S                   0000000180000000     sf_runtime:sf_runtime.dll
 0000:00000000       .debug$S                   0000000180000000     sf_runtime:sf_runtime.dll
 0000:00000000       .debug$S                   0000000180000000     sf_runtime:sf_runtime.dll
 0000:00000000       .debug$S                   0000000180000000     sf_runtime:sf_runtime.dll
 0000:00000000       .debug$S                   0000000180000000     sf_runtime:sf_runtime.dll
 0000:00000000       .debug$S                   0000000180000000     sf_runtime:sf_runtime.dll
 0000:00000000       .debug$S                   0000000180000000     sf_runtime:sf_runtime.dll
 0000:00000000       .debug$S                   0000000180000000     sf_runtime:sf_runtime.dll
 0000:00000000       .debug$S                   0000000180000000     sf_runtime:sf_runtime.dll
 0000:00000000       .debug$S                   0000000180000000     sf_runtime:sf_runtime.dll
 0000:00000000       .debug$S                   0000000180000000     sf_runtime:sf_runtime.dll
 0000:00000000       .debug$S                   0000000180000000     sf_runtime:sf_runtime.dll
 0000:00000000       .debug$S                   0000000180000000     sf_runtime:sf_runtime.dll
 0000:00000000       .debug$S                   0000000180000000     sf_runtime:sf_runtime.dll
 0000:00000000       .debug$S                   0000000180000000     sf_runtime:sf_runtime.dll
 0000:00000000       .debug$S                   0000000180000000     sf_runtime:sf_runtime.dll
 0000:00000000       .debug$S                   0000000180000000     sf_runtime:sf_runtime.dll
 0000:00000000       .debug$S                   0000000180000000     sf_runtime:sf_runtime.dll
 0000:00000000       .debug$S                   0000000180000000     sf_runtime:sf_runtime.dll
 0000:00000000       .debug$S                   0000000180000000     sf_runtime:sf_runtime.dll
 0000:00000000       .debug$S                   0000000180000000     sf_runtime:sf_runtime.dll
 0000:00000000       .debug$S                   0000000180000000     sf_runtime:sf_runtime.dll
 0000:00000000       .debug$S                   0000000180000000     sf_runtime:sf_runtime.dll
 0000:00000000       .debug$S                   0000000180000000     sf_runtime:sf_runtime.dll
 0000:00000000       .debug$S                   0000000180000000     sf_runtime:sf_runtime.dll
 0000:00000000       .debug$S                   0000000180000000     sf_runtime:sf_runtime.dll
 0000:00000000       .debug$S                   0000000180000000     sf_runtime:sf_runtime.dll
 0000:00000000       .debug$S                   0000000180000000     sf_runtime:sf_runtime.dll
 0001:00001570       initialize_c1_test         0000000180002570 f   c1_test.obj
 0001:000015c0       initialize_params_c1_test  00000001800025c0 f   c1_test.obj
 0001:000015d0       enable_c1_test             00000001800025d0 f   c1_test.obj
 0001:00001600       disable_c1_test            0000000180002600 f   c1_test.obj
 0001:00001630       c1_update_debugger_state_c1_test 0000000180002630 f   c1_test.obj
 0001:00001640       get_sim_state_c1_test      0000000180002640 f   c1_test.obj
 0001:00001810       set_sim_state_c1_test      0000000180002810 f   c1_test.obj
 0001:00001920       finalize_c1_test           0000000180002920 f   c1_test.obj
 0001:00001930       sf_gateway_c1_test         0000000180002930 f   c1_test.obj
 0001:00001bc0       c1_chartstep_c1_test       0000000180002bc0 f   c1_test.obj
 0001:00004db0       initSimStructsc1_test      0000000180005db0 f   c1_test.obj
 0001:00004dc0       init_script_number_translation 0000000180005dc0 f   c1_test.obj
 0001:00004e10       c1_sf_marshallOut          0000000180005e10 f   c1_test.obj
 0001:00004f60       c1_emlrt_marshallIn        0000000180005f60 f   c1_test.obj
 0001:00004fd0       c1_b_emlrt_marshallIn      0000000180005fd0 f   c1_test.obj
 0001:000050c0       c1_sf_marshallIn           00000001800060c0 f   c1_test.obj
 0001:000051c0       c1_b_sf_marshallOut        00000001800061c0 f   c1_test.obj
 0001:00005310       c1_c_sf_marshallOut        0000000180006310 f   c1_test.obj
 0001:000053c0       c1_c_emlrt_marshallIn      00000001800063c0 f   c1_test.obj
 0001:00005450       c1_b_sf_marshallIn         0000000180006450 f   c1_test.obj
 0001:000054f0       c1_info_helper             00000001800064f0 f   c1_test.obj
 0001:00008cf0       c1_emlrt_marshallOut       0000000180009cf0 f   c1_test.obj
 0001:00008d80       c1_b_emlrt_marshallOut     0000000180009d80 f   c1_test.obj
 0001:00008df0       c1_power                   0000000180009df0 f   c1_test.obj
 0001:00008e50       c1_eml_scalar_eg           0000000180009e50 f   c1_test.obj
 0001:00008e60       c1_rdivide                 0000000180009e60 f   c1_test.obj
 0001:00008ec0       c1_e_emlrt_marshallIn      0000000180009ec0 f   c1_test.obj
 0001:00008f20       c1_f_emlrt_marshallIn      0000000180009f20 f   c1_test.obj
 0001:00008fb0       init_dsm_address_info      0000000180009fb0 f   c1_test.obj
 0001:00008fc0       init_simulink_io_address   0000000180009fc0 f   c1_test.obj
 0001:000097f0       sf_get_sim_state_info_c1_test 000000018000a7f0 f   c1_test.obj
 0001:000098c0       chart_debug_initialization 000000018000a8c0 f   c1_test.obj
 0001:0000a400       sf_get_instance_specialization 000000018000b400 f   c1_test.obj
 0001:0000a410       sf_opaque_initialize_c1_test 000000018000b410 f   c1_test.obj
 0001:0000a450       sf_opaque_enable_c1_test   000000018000b450 f   c1_test.obj
 0001:0000a470       sf_opaque_disable_c1_test  000000018000b470 f   c1_test.obj
 0001:0000a490       sf_opaque_gateway_c1_test  000000018000b490 f   c1_test.obj
 0001:0000a4b0       sf_opaque_get_sim_state_c1_test 000000018000b4b0 f   c1_test.obj
 0001:0000a500       sf_opaque_set_sim_state_c1_test 000000018000b500 f   c1_test.obj
 0001:0000a550       sf_opaque_terminate_c1_test 000000018000b550 f   c1_test.obj
 0001:0000a5f0       sf_opaque_init_subchart_simstructs 000000018000b5f0 f   c1_test.obj
 0001:0000a610       mdlProcessParameters_c1_test 000000018000b610 f   c1_test.obj
 0001:0000a6f0       mdlSetWorkWidths_c1_test   000000018000b6f0 f   c1_test.obj
 0001:0000ac40       mdlRTW_c1_test             000000018000bc40 f   c1_test.obj
 0001:0000ac80       mdlStart_c1_test           000000018000bc80 f   c1_test.obj
 0001:0000b0a0       initialize_c2_test         000000018000c0a0 f   c2_test.obj
 0001:0000b0f0       initialize_params_c2_test  000000018000c0f0 f   c2_test.obj
 0001:0000b100       enable_c2_test             000000018000c100 f   c2_test.obj
 0001:0000b130       disable_c2_test            000000018000c130 f   c2_test.obj
 0001:0000b160       c2_update_debugger_state_c2_test 000000018000c160 f   c2_test.obj
 0001:0000b170       get_sim_state_c2_test      000000018000c170 f   c2_test.obj
 0001:0000b340       set_sim_state_c2_test      000000018000c340 f   c2_test.obj
 0001:0000b450       finalize_c2_test           000000018000c450 f   c2_test.obj
 0001:0000b460       sf_gateway_c2_test         000000018000c460 f   c2_test.obj
 0001:0000c210       initSimStructsc2_test      000000018000d210 f   c2_test.obj
 0001:0000c220       init_script_number_translation 000000018000d220 f   c2_test.obj
 0001:0000c270       c2_sf_marshallOut          000000018000d270 f   c2_test.obj
 0001:0000c3c0       c2_emlrt_marshallIn        000000018000d3c0 f   c2_test.obj
 0001:0000c430       c2_b_emlrt_marshallIn      000000018000d430 f   c2_test.obj
 0001:0000c520       c2_sf_marshallIn           000000018000d520 f   c2_test.obj
 0001:0000c620       c2_b_sf_marshallOut        000000018000d620 f   c2_test.obj
 0001:0000c6d0       c2_c_emlrt_marshallIn      000000018000d6d0 f   c2_test.obj
 0001:0000c760       c2_b_sf_marshallIn         000000018000d760 f   c2_test.obj
 0001:0000c800       c2_c_sf_marshallOut        000000018000d800 f   c2_test.obj
 0001:0000c8e0       c2_d_emlrt_marshallIn      000000018000d8e0 f   c2_test.obj
 0001:0000c9c0       c2_c_sf_marshallIn         000000018000d9c0 f   c2_test.obj
 0001:0000cab0       c2_info_helper             000000018000dab0 f   c2_test.obj
 0001:0000f8e0       c2_emlrt_marshallOut       00000001800108e0 f   c2_test.obj
 0001:0000f970       c2_b_emlrt_marshallOut     0000000180010970 f   c2_test.obj
 0001:0000f9e0       c2_power                   00000001800109e0 f   c2_test.obj
 0001:0000fa40       c2_eml_scalar_eg           0000000180010a40 f   c2_test.obj
 0001:0000fa50       c2_f_emlrt_marshallIn      0000000180010a50 f   c2_test.obj
 0001:0000fab0       c2_g_emlrt_marshallIn      0000000180010ab0 f   c2_test.obj
 0001:0000fb40       init_dsm_address_info      0000000180010b40 f   c2_test.obj
 0001:0000fb50       init_simulink_io_address   0000000180010b50 f   c2_test.obj
 0001:00010210       sf_get_sim_state_info_c2_test 0000000180011210 f   c2_test.obj
 0001:000102e0       chart_debug_initialization 00000001800112e0 f   c2_test.obj
 0001:00010b00       sf_get_instance_specialization 0000000180011b00 f   c2_test.obj
 0001:00010b10       sf_opaque_initialize_c2_test 0000000180011b10 f   c2_test.obj
 0001:00010b50       sf_opaque_enable_c2_test   0000000180011b50 f   c2_test.obj
 0001:00010b70       sf_opaque_disable_c2_test  0000000180011b70 f   c2_test.obj
 0001:00010b90       sf_opaque_gateway_c2_test  0000000180011b90 f   c2_test.obj
 0001:00010bb0       sf_opaque_get_sim_state_c2_test 0000000180011bb0 f   c2_test.obj
 0001:00010c00       sf_opaque_set_sim_state_c2_test 0000000180011c00 f   c2_test.obj
 0001:00010c50       sf_opaque_terminate_c2_test 0000000180011c50 f   c2_test.obj
 0001:00010cf0       sf_opaque_init_subchart_simstructs 0000000180011cf0 f   c2_test.obj
 0001:00010d10       mdlProcessParameters_c2_test 0000000180011d10 f   c2_test.obj
 0001:00010df0       mdlSetWorkWidths_c2_test   0000000180011df0 f   c2_test.obj
 0001:00011300       mdlRTW_c2_test             0000000180012300 f   c2_test.obj
 0001:00011340       mdlStart_c2_test           0000000180012340 f   c2_test.obj
 0001:00012694       $LN107                     0000000180013694     test_sfun_registry.obj
 0001:000139c4       $LN17                      00000001800149c4     test_sfun_registry.obj
 0001:00013f4c       $LN26                      0000000180014f4c     test_sfun_registry.obj
 0001:00014634       $LN23                      0000000180015634     test_sfun_registry.obj
 0001:00014c10       $LN26                      0000000180015c10     test_sfun_registry.obj
 0001:00016ad0       sf_debug_api_wrapper       0000000180017ad0 f   test_sfun_registry.obj
 0001:00016b20       ProcessMexSfunctionCmdLineCall 0000000180017b20 f   test_sfun_registry.obj
 0001:00016e50       getChartInfoFromSimStruct  0000000180017e50 f   test_sfun_registry.obj
 0001:00016f10       mdlSetWorkWidths           0000000180017f10 f   test_sfun_registry.obj
 0001:00016f40       mdlProcessParameters       0000000180017f40 f   test_sfun_registry.obj
 0001:00016f70       mdl_start_processing       0000000180017f70 f   test_sfun_registry.obj
 0001:00017030       mdl_terminate_processing   0000000180018030 f   test_sfun_registry.obj
 0001:000170b0       mdlStart                   00000001800180b0 f   test_sfun_registry.obj
 0001:000170e0       mdlTerminate               00000001800180e0 f   test_sfun_registry.obj
 0001:00017110       mdlInitializeSizes         0000000180018110 f   test_sfun_registry.obj
 0001:00017140       mdlInitializeSampleTimes   0000000180018140 f   test_sfun_registry.obj
 0001:00017170       mdl_outputs_continuous_legacy 0000000180018170 f   test_sfun_registry.obj
 0001:00017270       mdl_outputs_processing     0000000180018270 f   test_sfun_registry.obj
 0001:00017370       mdl_zeroCrossings_processing 0000000180018370 f   test_sfun_registry.obj
 0001:000173b0       mdlZeroCrossings           00000001800183b0 f   test_sfun_registry.obj
 0001:000173e0       mdl_derivatives_processing 00000001800183e0 f   test_sfun_registry.obj
 0001:00017430       mdlDerivatives             0000000180018430 f   test_sfun_registry.obj
 0001:00017460       mdl_initialize_conditions_processing 0000000180018460 f   test_sfun_registry.obj
 0001:000174b0       mdlInitializeConditions    00000001800184b0 f   test_sfun_registry.obj
 0001:000174e0       mdl_ext_mode_exec_processing 00000001800184e0 f   test_sfun_registry.obj
 0001:00017520       mdlExtModeExec             0000000180018520 f   test_sfun_registry.obj
 0001:00017550       mdlRTW                     0000000180018550 f   test_sfun_registry.obj
 0001:00017590       mdl_enable_processing      0000000180018590 f   test_sfun_registry.obj
 0001:000175d0       mdlEnable                  00000001800185d0 f   test_sfun_registry.obj
 0001:00017600       mdl_disable_processing     0000000180018600 f   test_sfun_registry.obj
 0001:00017640       mdlDisable                 0000000180018640 f   test_sfun_registry.obj
 0001:00017670       mdlOutputs                 0000000180018670 f   test_sfun_registry.obj
 0001:00017840       mdlGetTimeOfNextVarHit     0000000180018840 f   test_sfun_registry.obj
 0001:00017890       _RegNumInputPortsCB        0000000180018890 f   test_sfun_registry.obj
 0001:00017910       _RegNumOutputPortsCB       0000000180018910 f   test_sfun_registry.obj
 0001:00017990       _CreateSimStruct           0000000180018990 f   test_sfun_registry.obj
 0001:00017b20       _ssFatalError              0000000180018b20 f   test_sfun_registry.obj
 0001:00017bd0       _ProcessMexSfunctionCmdLineCall 0000000180018bd0 f   test_sfun_registry.obj
 0001:00018900       $$000000                   0000000180019900     MSVCRT:amdsecgs.obj
 0001:0001895c       pre_c_init                 000000018001995c f   MSVCRT:crtdll.obj
 0001:00018c54       __DllMainCRTStartup        0000000180019c54 f   MSVCRT:crtdll.obj
 0001:00019170       __DllMainCRTStartup$filt$0 000000018001a170 f   MSVCRT:crtdll.obj
 0001:00019195       __DllMainCRTStartup$fin$1  000000018001a195 f   MSVCRT:crtdll.obj
 0001:000191b0       _IsNonwritableInCurrentImage$filt$0 000000018001a1b0 f   MSVCRT:pesect.obj
 0001:000191d0       _onexit$fin$0              000000018001a1d0 f   MSVCRT:atonexit.obj
 0002:000004b0       pcinit                     000000018001b4b0     MSVCRT:crtdll.obj
 0002:000004b8       pinit                      000000018001b4b8     MSVCRT:atonexit.obj
 0002:00000bf8       GS_ExceptionPointers       000000018001bbf8     MSVCRT:gs_report.obj
 0002:00000cc0       $unwind$load_test_optimization_info 000000018001bcc0     test_sfun.obj
 0002:00000cc8       $unwind$unload_test_optimization_info 000000018001bcc8     test_sfun.obj
 0002:00000cd0       $unwind$sf_test_method_dispatcher 000000018001bcd0     test_sfun.obj
 0002:00000cd8       $unwind$sf_test_uses_exported_functions 000000018001bcd8     test_sfun.obj
 0002:00000ce0       $unwind$sf_test_process_check_sum_call 000000018001bce0     test_sfun.obj
 0002:00000cf0       $unwind$sf_test_autoinheritance_info 000000018001bcf0     test_sfun.obj
 0002:00000d00       $unwind$sf_test_get_eml_resolved_functions_info 000000018001bd00     test_sfun.obj
 0002:00000d10       $unwind$sf_test_third_party_uses_info 000000018001bd10     test_sfun.obj
 0002:00000d20       $unwind$sf_test_jit_fallback_info 000000018001bd20     test_sfun.obj
 0002:00000d30       $unwind$sf_test_updateBuildInfo_args_info 000000018001bd30     test_sfun.obj
 0002:00000d40       $unwind$sf_test_get_post_codegen_info 000000018001bd40     test_sfun.obj
 0002:00000d50       $unwind$test_debug_initialize 000000018001bd50     test_sfun.obj
 0002:00000d58       $unwind$sf_c1_test_get_eml_resolved_functions_info 000000018001bd58     c1_test.obj
 0002:00000d60       $unwind$sf_c1_test_get_check_sum 000000018001bd60     c1_test.obj
 0002:00000d68       $unwind$c1_test_method_dispatcher 000000018001bd68     c1_test.obj
 0002:00000d70       $unwind$initialize_c1_test 000000018001bd70     c1_test.obj
 0002:00000d78       $unwind$enable_c1_test     000000018001bd78     c1_test.obj
 0002:00000d80       $unwind$disable_c1_test    000000018001bd80     c1_test.obj
 0002:00000d88       $unwind$get_sim_state_c1_test 000000018001bd88     c1_test.obj
 0002:00000d98       $unwind$set_sim_state_c1_test 000000018001bd98     c1_test.obj
 0002:00000da8       $unwind$sf_gateway_c1_test 000000018001bda8     c1_test.obj
 0002:00000db0       $unwind$c1_chartstep_c1_test 000000018001bdb0     c1_test.obj
 0002:00000dc0       $unwind$init_script_number_translation 000000018001bdc0     c1_test.obj
 0002:00000dc8       $unwind$c1_sf_marshallOut  000000018001bdc8     c1_test.obj
 0002:00000dd8       $unwind$c1_emlrt_marshallIn 000000018001bdd8     c1_test.obj
 0002:00000de0       $unwind$c1_b_emlrt_marshallIn 000000018001bde0     c1_test.obj
 0002:00000df0       $unwind$c1_sf_marshallIn   000000018001bdf0     c1_test.obj
 0002:00000e00       $unwind$c1_b_sf_marshallOut 000000018001be00     c1_test.obj
 0002:00000e10       $unwind$c1_c_sf_marshallOut 000000018001be10     c1_test.obj
 0002:00000e18       $unwind$c1_c_emlrt_marshallIn 000000018001be18     c1_test.obj
 0002:00000e20       $unwind$c1_b_sf_marshallIn 000000018001be20     c1_test.obj
 0002:00000e28       $unwind$c1_info_helper     000000018001be28     c1_test.obj
 0002:00000e30       $unwind$c1_emlrt_marshallOut 000000018001be30     c1_test.obj
 0002:00000e38       $unwind$c1_b_emlrt_marshallOut 000000018001be38     c1_test.obj
 0002:00000e40       $unwind$c1_power           000000018001be40     c1_test.obj
 0002:00000e48       $unwind$c1_rdivide         000000018001be48     c1_test.obj
 0002:00000e50       $unwind$c1_e_emlrt_marshallIn 000000018001be50     c1_test.obj
 0002:00000e58       $unwind$c1_f_emlrt_marshallIn 000000018001be58     c1_test.obj
 0002:00000e60       $unwind$init_simulink_io_address 000000018001be60     c1_test.obj
 0002:00000e68       $unwind$sf_c1_test_get_post_codegen_info 000000018001be68     c1_test.obj
 0002:00000e70       $unwind$sf_c1_test_get_autoinheritance_info 000000018001be70     c1_test.obj
 0002:00000e78       $unwind$sf_c1_test_third_party_uses_info 000000018001be78     c1_test.obj
 0002:00000e80       $unwind$sf_c1_test_jit_fallback_info 000000018001be80     c1_test.obj
 0002:00000e88       $unwind$sf_c1_test_updateBuildInfo_args_info 000000018001be88     c1_test.obj
 0002:00000e90       $unwind$sf_get_sim_state_info_c1_test 000000018001be90     c1_test.obj
 0002:00000e98       $unwind$chart_debug_initialization 000000018001be98     c1_test.obj
 0002:00000ea0       $unwind$sf_opaque_initialize_c1_test 000000018001bea0     c1_test.obj
 0002:00000ea8       $unwind$sf_opaque_enable_c1_test 000000018001bea8     c1_test.obj
 0002:00000eb0       $unwind$sf_opaque_disable_c1_test 000000018001beb0     c1_test.obj
 0002:00000eb8       $unwind$sf_opaque_gateway_c1_test 000000018001beb8     c1_test.obj
 0002:00000ec0       $unwind$sf_opaque_get_sim_state_c1_test 000000018001bec0     c1_test.obj
 0002:00000ec8       $unwind$sf_opaque_set_sim_state_c1_test 000000018001bec8     c1_test.obj
 0002:00000ed0       $unwind$sf_opaque_terminate_c1_test 000000018001bed0     c1_test.obj
 0002:00000ed8       $unwind$sf_opaque_init_subchart_simstructs 000000018001bed8     c1_test.obj
 0002:00000ee0       $unwind$mdlProcessParameters_c1_test 000000018001bee0     c1_test.obj
 0002:00000ee8       $unwind$mdlSetWorkWidths_c1_test 000000018001bee8     c1_test.obj
 0002:00000ef0       $unwind$mdlRTW_c1_test     000000018001bef0     c1_test.obj
 0002:00000ef8       $unwind$mdlStart_c1_test   000000018001bef8     c1_test.obj
 0002:00000f00       $unwind$sf_c2_test_get_eml_resolved_functions_info 000000018001bf00     c2_test.obj
 0002:00000f08       $unwind$sf_c2_test_get_check_sum 000000018001bf08     c2_test.obj
 0002:00000f10       $unwind$c2_test_method_dispatcher 000000018001bf10     c2_test.obj
 0002:00000f18       $unwind$initialize_c2_test 000000018001bf18     c2_test.obj
 0002:00000f20       $unwind$enable_c2_test     000000018001bf20     c2_test.obj
 0002:00000f28       $unwind$disable_c2_test    000000018001bf28     c2_test.obj
 0002:00000f30       $unwind$get_sim_state_c2_test 000000018001bf30     c2_test.obj
 0002:00000f40       $unwind$set_sim_state_c2_test 000000018001bf40     c2_test.obj
 0002:00000f50       $unwind$sf_gateway_c2_test 000000018001bf50     c2_test.obj
 0002:00000f64       $unwind$init_script_number_translation 000000018001bf64     c2_test.obj
 0002:00000f6c       $unwind$c2_sf_marshallOut  000000018001bf6c     c2_test.obj
 0002:00000f7c       $unwind$c2_emlrt_marshallIn 000000018001bf7c     c2_test.obj
 0002:00000f84       $unwind$c2_b_emlrt_marshallIn 000000018001bf84     c2_test.obj
 0002:00000f94       $unwind$c2_sf_marshallIn   000000018001bf94     c2_test.obj
 0002:00000fa4       $unwind$c2_b_sf_marshallOut 000000018001bfa4     c2_test.obj
 0002:00000fac       $unwind$c2_c_emlrt_marshallIn 000000018001bfac     c2_test.obj
 0002:00000fb4       $unwind$c2_b_sf_marshallIn 000000018001bfb4     c2_test.obj
 0002:00000fbc       $unwind$c2_c_sf_marshallOut 000000018001bfbc     c2_test.obj
 0002:00000fd0       $unwind$c2_d_emlrt_marshallIn 000000018001bfd0     c2_test.obj
 0002:00000fe4       $unwind$c2_c_sf_marshallIn 000000018001bfe4     c2_test.obj
 0002:00000ff8       $unwind$c2_info_helper     000000018001bff8     c2_test.obj
 0002:00001000       $unwind$c2_emlrt_marshallOut 000000018001c000     c2_test.obj
 0002:00001008       $unwind$c2_b_emlrt_marshallOut 000000018001c008     c2_test.obj
 0002:00001010       $unwind$c2_power           000000018001c010     c2_test.obj
 0002:00001018       $unwind$c2_f_emlrt_marshallIn 000000018001c018     c2_test.obj
 0002:00001020       $unwind$c2_g_emlrt_marshallIn 000000018001c020     c2_test.obj
 0002:00001028       $unwind$init_simulink_io_address 000000018001c028     c2_test.obj
 0002:00001030       $unwind$sf_c2_test_get_post_codegen_info 000000018001c030     c2_test.obj
 0002:00001038       $unwind$sf_c2_test_get_autoinheritance_info 000000018001c038     c2_test.obj
 0002:00001040       $unwind$sf_c2_test_third_party_uses_info 000000018001c040     c2_test.obj
 0002:00001048       $unwind$sf_c2_test_jit_fallback_info 000000018001c048     c2_test.obj
 0002:00001050       $unwind$sf_c2_test_updateBuildInfo_args_info 000000018001c050     c2_test.obj
 0002:00001058       $unwind$sf_get_sim_state_info_c2_test 000000018001c058     c2_test.obj
 0002:00001060       $unwind$chart_debug_initialization 000000018001c060     c2_test.obj
 0002:00001068       $unwind$sf_opaque_initialize_c2_test 000000018001c068     c2_test.obj
 0002:00001070       $unwind$sf_opaque_enable_c2_test 000000018001c070     c2_test.obj
 0002:00001078       $unwind$sf_opaque_disable_c2_test 000000018001c078     c2_test.obj
 0002:00001080       $unwind$sf_opaque_gateway_c2_test 000000018001c080     c2_test.obj
 0002:00001088       $unwind$sf_opaque_get_sim_state_c2_test 000000018001c088     c2_test.obj
 0002:00001090       $unwind$sf_opaque_set_sim_state_c2_test 000000018001c090     c2_test.obj
 0002:00001098       $unwind$sf_opaque_terminate_c2_test 000000018001c098     c2_test.obj
 0002:000010a0       $unwind$sf_opaque_init_subchart_simstructs 000000018001c0a0     c2_test.obj
 0002:000010a8       $unwind$mdlProcessParameters_c2_test 000000018001c0a8     c2_test.obj
 0002:000010b0       $unwind$mdlSetWorkWidths_c2_test 000000018001c0b0     c2_test.obj
 0002:000010b8       $unwind$mdlRTW_c2_test     000000018001c0b8     c2_test.obj
 0002:000010c0       $unwind$mdlStart_c2_test   000000018001c0c0     c2_test.obj
 0002:000010c8       $unwind$mexFunction        000000018001c0c8     test_sfun_registry.obj
 0002:000010d0       $unwind$_ssSetInputPortDirectFeedThroughFcn 000000018001c0d0     test_sfun_registry.obj
 0002:000010d8       $unwind$_ssGetInputPortSignalPtrsFcn 000000018001c0d8     test_sfun_registry.obj
 0002:000010e0       $unwind$_ssGetInputPortSignalFcn 000000018001c0e0     test_sfun_registry.obj
 0002:000010e8       $unwind$_ssSetInputPortReusableFcn 000000018001c0e8     test_sfun_registry.obj
 0002:000010f8       $unwind$_ssSetOutputPortReusableFcn 000000018001c0f8     test_sfun_registry.obj
 0002:00001108       $unwind$ssGetIsZeroCrossControlDisabled 000000018001c108     test_sfun_registry.obj
 0002:00001110       $unwind$ssSetIsInputPortUsedForContZcSignal 000000018001c110     test_sfun_registry.obj
 0002:00001118       $unwind$ssSetZcSignalIsZcElementDisc 000000018001c118     test_sfun_registry.obj
 0002:00001128       $unwind$ssSetZcSignalName  000000018001c128     test_sfun_registry.obj
 0002:00001130       $unwind$ssSetZcSignalWidth 000000018001c130     test_sfun_registry.obj
 0002:00001138       $unwind$ssSetZcSignalZcEventType 000000018001c138     test_sfun_registry.obj
 0002:00001140       $unwind$ssSetZcSignalType  000000018001c140     test_sfun_registry.obj
 0002:00001148       $unwind$ssSetZcSignalZcTol 000000018001c148     test_sfun_registry.obj
 0002:00001150       $unwind$ssSetZcSignalNeedsEventNotification 000000018001c150     test_sfun_registry.obj
 0002:00001158       $unwind$ssCreateAndAddZcSignalInfo 000000018001c158     test_sfun_registry.obj
 0002:00001160       $unwind$ssCloneAndAddZcSignalInfo 000000018001c160     test_sfun_registry.obj
 0002:00001168       $unwind$ssGetNumZcSignals  000000018001c168     test_sfun_registry.obj
 0002:00001170       $unwind$ssGetZcSignalVector 000000018001c170     test_sfun_registry.obj
 0002:00001178       $unwind$ssGetZcSignalName  000000018001c178     test_sfun_registry.obj
 0002:00001180       $unwind$ssGetZcSignalWidth 000000018001c180     test_sfun_registry.obj
 0002:00001188       $unwind$ssGetZcSignalZcEventType 000000018001c188     test_sfun_registry.obj
 0002:00001190       $unwind$ssGetZcSignalZcEvents 000000018001c190     test_sfun_registry.obj
 0002:00001198       $unwind$ssGetZcSignalType  000000018001c198     test_sfun_registry.obj
 0002:000011a0       $unwind$ssGetZcSignalZcTol 000000018001c1a0     test_sfun_registry.obj
 0002:000011a8       $unwind$ssGetZcSignalNeedsEventNotification 000000018001c1a8     test_sfun_registry.obj
 0002:000011b0       $unwind$ssGetZcSignalIsZcElementDisc 000000018001c1b0     test_sfun_registry.obj
 0002:000011c0       $unwind$ssGetIsInputPortElementContinuous 000000018001c1c0     test_sfun_registry.obj
 0002:000011d0       $unwind$ssGetDTypeIdFromMxArray 000000018001c1d0     test_sfun_registry.obj
 0002:000011d8       $unwind$ssWriteRTWStr      000000018001c1d8     test_sfun_registry.obj
 0002:000011e0       $unwind$ssWriteRTWNameValuePair 000000018001c1e0     test_sfun_registry.obj
 0002:000011e8       $unwind$ssWriteRTWParamSettings 000000018001c1e8     test_sfun_registry.obj
 0002:000011f0       $unwind$ssWriteRTWParameters 000000018001c1f0     test_sfun_registry.obj
 0002:000011f8       $unwind$ssWriteRTWWorkVect 000000018001c1f8     test_sfun_registry.obj
 0002:0000120c       $unwind$ssWriteRTWMxVectParam 000000018001c20c     test_sfun_registry.obj
 0002:00001214       $unwind$ssWriteRTWMx2dMatParam 000000018001c214     test_sfun_registry.obj
 0002:0000121c       $unwind$_ssSetInputPortMatrixDimensions 000000018001c21c     test_sfun_registry.obj
 0002:00001228       $unwind$_ssSetOutputPortMatrixDimensions 000000018001c228     test_sfun_registry.obj
 0002:00001234       $unwind$_ssSetInputPortVectorDimension 000000018001c234     test_sfun_registry.obj
 0002:00001240       $unwind$_ssSetOutputPortVectorDimension 000000018001c240     test_sfun_registry.obj
 0002:0000124c       $unwind$ssIsRunTimeParamTunable 000000018001c24c     test_sfun_registry.obj
 0002:00001254       $unwind$ssGetSFuncBlockHandle 000000018001c254     test_sfun_registry.obj
 0002:0000125c       $unwind$_ssGetCurrentInputPortWidth 000000018001c25c     test_sfun_registry.obj
 0002:00001264       $unwind$_ssGetCurrentOutputPortWidth 000000018001c264     test_sfun_registry.obj
 0002:0000126c       $unwind$_ssGetCallSystemNumFcnCallDestinations 000000018001c26c     test_sfun_registry.obj
 0002:00001274       $unwind$ssWarning          000000018001c274     test_sfun_registry.obj
 0002:00001288       $unwind$_ssGetAbsTol       000000018001c288     test_sfun_registry.obj
 0002:00001290       $unwind$sf_process_check_sum_call 000000018001c290     test_sfun_registry.obj
 0002:00001298       $unwind$sf_process_machine_uses_exported_functions_call 000000018001c298     test_sfun_registry.obj
 0002:000012a8       $unwind$sf_process_autoinheritance_call 000000018001c2a8     test_sfun_registry.obj
 0002:000012b8       $unwind$sf_process_get_third_party_uses_info_call 000000018001c2b8     test_sfun_registry.obj
 0002:000012c8       $unwind$sf_process_get_jit_fallback_info_call 000000018001c2c8     test_sfun_registry.obj
 0002:000012d8       $unwind$sf_process_get_updateBuildInfo_args_info_call 000000018001c2d8     test_sfun_registry.obj
 0002:000012e8       $unwind$sf_process_get_eml_resolved_functions_info_call 000000018001c2e8     test_sfun_registry.obj
 0002:000012f8       $unwind$sf_process_get_post_codegen_info 000000018001c2f8     test_sfun_registry.obj
 0002:00001308       $unwind$sf_mex_unlock_call 000000018001c308     test_sfun_registry.obj
 0002:00001318       $unwind$sf_debug_api_wrapper 000000018001c318     test_sfun_registry.obj
 0002:00001320       $unwind$ProcessMexSfunctionCmdLineCall 000000018001c320     test_sfun_registry.obj
 0002:00001328       $unwind$sf_machine_global_initializer_called 000000018001c328     test_sfun_registry.obj
 0002:00001330       $unwind$sf_machine_global_method_dispatcher 000000018001c330     test_sfun_registry.obj
 0002:00001338       $unwind$sf_machine_global_terminator 000000018001c338     test_sfun_registry.obj
 0002:00001340       $unwind$sf_register_machine_exported_symbols 000000018001c340     test_sfun_registry.obj
 0002:00001348       $unwind$sf_machine_global_initializer 000000018001c348     test_sfun_registry.obj
 0002:00001350       $unwind$getChartInfoFromSimStruct 000000018001c350     test_sfun_registry.obj
 0002:00001358       $unwind$mdlGetSimState     000000018001c358     test_sfun_registry.obj
 0002:00001360       $unwind$mdlSetSimState     000000018001c360     test_sfun_registry.obj
 0002:00001368       $unwind$mdlSetWorkWidths   000000018001c368     test_sfun_registry.obj
 0002:00001370       $unwind$mdlProcessParameters 000000018001c370     test_sfun_registry.obj
 0002:00001378       $unwind$mdl_start_processing 000000018001c378     test_sfun_registry.obj
 0002:00001380       $unwind$mdl_terminate_processing 000000018001c380     test_sfun_registry.obj
 0002:00001388       $unwind$mdlStart           000000018001c388     test_sfun_registry.obj
 0002:00001390       $unwind$mdlTerminate       000000018001c390     test_sfun_registry.obj
 0002:00001398       $unwind$mdlInitializeSizes 000000018001c398     test_sfun_registry.obj
 0002:000013a0       $unwind$mdlInitializeSampleTimes 000000018001c3a0     test_sfun_registry.obj
 0002:000013a8       $unwind$mdl_outputs_continuous_legacy 000000018001c3a8     test_sfun_registry.obj
 0002:000013b0       $unwind$mdl_outputs_processing 000000018001c3b0     test_sfun_registry.obj
 0002:000013b8       $unwind$mdl_zeroCrossings_processing 000000018001c3b8     test_sfun_registry.obj
 0002:000013c0       $unwind$mdlZeroCrossings   000000018001c3c0     test_sfun_registry.obj
 0002:000013c8       $unwind$mdl_derivatives_processing 000000018001c3c8     test_sfun_registry.obj
 0002:000013d0       $unwind$mdlDerivatives     000000018001c3d0     test_sfun_registry.obj
 0002:000013d8       $unwind$mdl_initialize_conditions_processing 000000018001c3d8     test_sfun_registry.obj
 0002:000013e0       $unwind$mdlInitializeConditions 000000018001c3e0     test_sfun_registry.obj
 0002:000013e8       $unwind$mdl_ext_mode_exec_processing 000000018001c3e8     test_sfun_registry.obj
 0002:000013f0       $unwind$mdlExtModeExec     000000018001c3f0     test_sfun_registry.obj
 0002:000013f8       $unwind$mdlRTW             000000018001c3f8     test_sfun_registry.obj
 0002:00001400       $unwind$mdl_enable_processing 000000018001c400     test_sfun_registry.obj
 0002:00001408       $unwind$mdlEnable          000000018001c408     test_sfun_registry.obj
 0002:00001410       $unwind$mdl_disable_processing 000000018001c410     test_sfun_registry.obj
 0002:00001418       $unwind$mdlDisable         000000018001c418     test_sfun_registry.obj
 0002:00001420       $unwind$mdlOutputs         000000018001c420     test_sfun_registry.obj
 0002:00001428       $unwind$ProcessMexSfunctionEveryCall 000000018001c428     test_sfun_registry.obj
 0002:00001430       $unwind$_RegNumInputPortsCB 000000018001c430     test_sfun_registry.obj
 0002:00001438       $unwind$_RegNumOutputPortsCB 000000018001c438     test_sfun_registry.obj
 0002:00001440       $unwind$_CreateSimStruct   000000018001c440     test_sfun_registry.obj
 0002:00001448       $unwind$_ssFatalError      000000018001c448     test_sfun_registry.obj
 0002:00001450       $unwind$_ProcessMexSfunctionCmdLineCall 000000018001c450     test_sfun_registry.obj
 0002:00001460       $unwind$__report_securityfailure 000000018001c460     MSVCRT:gs_report.obj
 0002:00001468       $unwind$__report_securityfailureEx 000000018001c468     MSVCRT:gs_report.obj
 0002:00001470       $unwind$__report_rangecheckfailure 000000018001c470     MSVCRT:gs_report.obj
 0002:00001478       $unwind$__raise_securityfailure 000000018001c478     MSVCRT:gs_report.obj
 0002:00001480       $unwind$__report_gsfailure 000000018001c480     MSVCRT:gs_report.obj
 0002:00001488       $unwind$__GSHandlerCheckCommon 000000018001c488     MSVCRT:gshandler.obj
 0002:00001490       $unwind$__GSHandlerCheck   000000018001c490     MSVCRT:gshandler.obj
 0002:00001498       $xdatasym                  000000018001c498     MSVCRT:amdsecgs.obj
 0002:0000149c       $unwind$_CRT_INIT          000000018001c49c     MSVCRT:crtdll.obj
 0002:000014b8       $unwind$pre_c_init         000000018001c4b8     MSVCRT:crtdll.obj
 0002:000014c0       $unwind$__DllMainCRTStartup 000000018001c4c0     MSVCRT:crtdll.obj
 0002:000014fc       $unwind$__DllMainCRTStartup$filt$0 000000018001c4fc     MSVCRT:crtdll.obj
 0002:00001504       $unwind$__DllMainCRTStartup$fin$1 000000018001c504     MSVCRT:crtdll.obj
 0002:0000150c       $unwind$_DllMainCRTStartup 000000018001c50c     MSVCRT:crtdll.obj
 0002:0000151c       $unwind$_IsNonwritableInCurrentImage 000000018001c51c     MSVCRT:pesect.obj
 0002:00001540       $unwind$_IsNonwritableInCurrentImage$filt$0 000000018001c540     MSVCRT:pesect.obj
 0002:00001548       $unwind$atexit             000000018001c548     MSVCRT:atonexit.obj
 0002:00001550       $unwind$_onexit            000000018001c550     MSVCRT:atonexit.obj
 0002:00001570       $unwind$_onexit$fin$0      000000018001c570     MSVCRT:atonexit.obj
 0002:00001578       $unwind$__atonexitinit     000000018001c578     MSVCRT:atonexit.obj
 0002:00001580       $unwind$__security_init_cookie 000000018001c580     MSVCRT:gs_support.obj
 0002:0000158c       $unwind$DllMain            000000018001c58c     MSVCRT:dllmain.obj
 0002:00001594       $unwind$_RTC_Initialize    000000018001c594     MSVCRT:initsect.obj
 0002:000015a0       $unwind$_RTC_Terminate     000000018001c5a0     MSVCRT:initsect.obj
 0002:000022b6       .idata$6                   000000018001d2b6     sf_runtime:sf_runtime.dll
 0002:00002446       .idata$6                   000000018001d446     libmx:libmx.dll
 0002:000024c8       .idata$6                   000000018001d4c8     libmex:libmex.dll
 0002:000024ea       .idata$6                   000000018001d4ea     libut:libut.dll
 0002:00002546       .idata$6                   000000018001d546     libmwmathutil:libmwmathutil.dll
 0002:0000262a       .idata$6                   000000018001d62a     MSVCRT:MSVCR110.dll
 0002:000027c0       .idata$6                   000000018001d7c0     kernel32:KERNEL32.dll
 0002:000027d0       .edata                     000000018001d7d0     test_sfun.exp
 0002:000027f8       rgpv                       000000018001d7f8     test_sfun.exp
 0002:000027fc       rgszName                   000000018001d7fc     test_sfun.exp
 0002:00002800       rgwOrd                     000000018001d800     test_sfun.exp
 0002:00002802       szName                     000000018001d802     test_sfun.exp
 0002:00002813       $N00001                    000000018001d813     test_sfun.exp
 0003:00000000       $SG14893                   000000018001e000     test_sfun.obj
 0003:00000018       $SG14899                   000000018001e018     test_sfun.obj
 0003:00000020       $SG14910                   000000018001e020     test_sfun.obj
 0003:00000030       $SG14921                   000000018001e030     test_sfun.obj
 0003:0000003c       $SG14932                   000000018001e03c     test_sfun.obj
 0003:00000044       $SG14958                   000000018001e044     test_sfun.obj
 0003:00000050       $SG14995                   000000018001e050     test_sfun.obj
 0003:00000070       $SG15007                   000000018001e070     test_sfun.obj
 0003:00000088       $SG15012                   000000018001e088     test_sfun.obj
 0003:000000a0       $SG15033                   000000018001e0a0     test_sfun.obj
 0003:000000c0       $SG15072                   000000018001e0c0     test_sfun.obj
 0003:000000e0       $SG15081                   000000018001e0e0     test_sfun.obj
 0003:000000f8       $SG15086                   000000018001e0f8     test_sfun.obj
 0003:00000110       $SG15111                   000000018001e110     test_sfun.obj
 0003:00000128       $SG15120                   000000018001e128     test_sfun.obj
 0003:00000140       $SG15125                   000000018001e140     test_sfun.obj
 0003:00000158       $SG15150                   000000018001e158     test_sfun.obj
 0003:00000178       $SG15159                   000000018001e178     test_sfun.obj
 0003:00000190       $SG15164                   000000018001e190     test_sfun.obj
 0003:000001a8       $SG15190                   000000018001e1a8     test_sfun.obj
 0003:000001c0       $SG15195                   000000018001e1c0     test_sfun.obj
 0003:000001d8       $SG15203                   000000018001e1d8     test_sfun.obj
 0003:000001e0       $SG15204                   000000018001e1e0     test_sfun.obj
 0003:000001e8       $SG15215                   000000018001e1e8     test_sfun.obj
 0003:000001f0       $SG15216                   000000018001e1f0     test_sfun.obj
 0003:00000200       $SG18432                   000000018001e200     c1_test.obj
 0003:00000208       $SG18433                   000000018001e208     c1_test.obj
 0003:00000210       $SG18434                   000000018001e210     c1_test.obj
 0003:00000248       $SG18435                   000000018001e248     c1_test.obj
 0003:00000250       $SG18436                   000000018001e250     c1_test.obj
 0003:00000258       $SG18437                   000000018001e258     c1_test.obj
 0003:00000278       $SG18438                   000000018001e278     c1_test.obj
 0003:00000288       $SG18439                   000000018001e288     c1_test.obj
 0003:00000298       $SG18440                   000000018001e298     c1_test.obj
 0003:000002a0       $SG18441                   000000018001e2a0     c1_test.obj
 0003:000002ac       $SG18452                   000000018001e2ac     c1_test.obj
 0003:000002b0       $SG18442                   000000018001e2b0     c1_test.obj
 0003:000002c0       $SG18443                   000000018001e2c0     c1_test.obj
 0003:00000314       $SG18453                   000000018001e314     c1_test.obj
 0003:00000318       $SG18444                   000000018001e318     c1_test.obj
 0003:00000324       $SG18454                   000000018001e324     c1_test.obj
 0003:00000328       $SG18445                   000000018001e328     c1_test.obj
 0003:00000334       $SG18455                   000000018001e334     c1_test.obj
 0003:00000338       $SG18446                   000000018001e338     c1_test.obj
 0003:00000344       $SG18476                   000000018001e344     c1_test.obj
 0003:00000348       $SG18447                   000000018001e348     c1_test.obj
 0003:00000354       $SG18477                   000000018001e354     c1_test.obj
 0003:00000358       $SG18448                   000000018001e358     c1_test.obj
 0003:00000364       $SG18478                   000000018001e364     c1_test.obj
 0003:00000368       $SG18449                   000000018001e368     c1_test.obj
 0003:00000374       $SG18479                   000000018001e374     c1_test.obj
 0003:00000378       $SG18450                   000000018001e378     c1_test.obj
 0003:00000384       $SG18500                   000000018001e384     c1_test.obj
 0003:00000388       $SG18451                   000000018001e388     c1_test.obj
 0003:00000394       $SG18501                   000000018001e394     c1_test.obj
 0003:00000398       $SG18456                   000000018001e398     c1_test.obj
 0003:000003a0       $SG18457                   000000018001e3a0     c1_test.obj
 0003:000003a8       $SG18458                   000000018001e3a8     c1_test.obj
 0003:000003e0       $SG18459                   000000018001e3e0     c1_test.obj
 0003:000003e8       $SG18460                   000000018001e3e8     c1_test.obj
 0003:000003f0       $SG18461                   000000018001e3f0     c1_test.obj
 0003:00000408       $SG18462                   000000018001e408     c1_test.obj
 0003:00000418       $SG18463                   000000018001e418     c1_test.obj
 0003:00000428       $SG18464                   000000018001e428     c1_test.obj
 0003:00000430       $SG18465                   000000018001e430     c1_test.obj
 0003:0000043c       $SG18488                   000000018001e43c     c1_test.obj
 0003:00000444       $SG18502                   000000018001e444     c1_test.obj
 0003:00000448       $SG18466                   000000018001e448     c1_test.obj
 0003:00000458       $SG18468                   000000018001e458     c1_test.obj
 0003:00000468       $SG18472                   000000018001e468     c1_test.obj
 0003:00000474       $SG18483                   000000018001e474     c1_test.obj
 0003:00000480       $SG18467                   000000018001e480     c1_test.obj
 0003:000004c8       $SG18469                   000000018001e4c8     c1_test.obj
 0003:000004d4       $SG18503                   000000018001e4d4     c1_test.obj
 0003:000004d8       $SG18470                   000000018001e4d8     c1_test.obj
 0003:000004e4       $SG18524                   000000018001e4e4     c1_test.obj
 0003:000004e8       $SG18471                   000000018001e4e8     c1_test.obj
 0003:000004f4       $SG18525                   000000018001e4f4     c1_test.obj
 0003:000004f8       $SG18473                   000000018001e4f8     c1_test.obj
 0003:00000504       $SG18526                   000000018001e504     c1_test.obj
 0003:00000508       $SG18474                   000000018001e508     c1_test.obj
 0003:00000514       $SG18527                   000000018001e514     c1_test.obj
 0003:00000518       $SG18475                   000000018001e518     c1_test.obj
 0003:00000524       $SG18534                   000000018001e524     c1_test.obj
 0003:00000528       $SG18480                   000000018001e528     c1_test.obj
 0003:00000530       $SG18481                   000000018001e530     c1_test.obj
 0003:00000538       $SG18482                   000000018001e538     c1_test.obj
 0003:00000570       $SG18484                   000000018001e570     c1_test.obj
 0003:00000578       $SG18485                   000000018001e578     c1_test.obj
 0003:00000580       $SG18486                   000000018001e580     c1_test.obj
 0003:00000590       $SG18487                   000000018001e590     c1_test.obj
 0003:000005a0       $SG18489                   000000018001e5a0     c1_test.obj
 0003:000005ac       $SG18512                   000000018001e5ac     c1_test.obj
 0003:000005b4       $SG18541                   000000018001e5b4     c1_test.obj
 0003:000005b8       $SG18490                   000000018001e5b8     c1_test.obj
 0003:000005c4       $SG18581                   000000018001e5c4     c1_test.obj
 0003:000005c8       $SG18491                   000000018001e5c8     c1_test.obj
 0003:00000600       $SG18492                   000000018001e600     c1_test.obj
 0003:0000060c       $SG17572                   000000018001e60c     c1_test.obj
 0003:00000610       $SG18493                   000000018001e610     c1_test.obj
 0003:0000061c       $SG17574                   000000018001e61c     c1_test.obj
 0003:00000620       $SG18494                   000000018001e620     c1_test.obj
 0003:0000062c       $SG17583                   000000018001e62c     c1_test.obj
 0003:00000630       $SG18495                   000000018001e630     c1_test.obj
 0003:0000063c       $SG17759                   000000018001e63c     c1_test.obj
 0003:00000640       $SG18496                   000000018001e640     c1_test.obj
 0003:0000064c       $SG18815                   000000018001e64c     c1_test.obj
 0003:00000650       $SG18497                   000000018001e650     c1_test.obj
 0003:0000065c       $SG18816                   000000018001e65c     c1_test.obj
 0003:00000660       $SG18498                   000000018001e660     c1_test.obj
 0003:0000066c       $SG17831                   000000018001e66c     c1_test.obj
 0003:00000670       $SG18499                   000000018001e670     c1_test.obj
 0003:0000067c       $SG17847                   000000018001e67c     c1_test.obj
 0003:00000680       $SG18504                   000000018001e680     c1_test.obj
 0003:00000688       $SG18505                   000000018001e688     c1_test.obj
 0003:00000690       $SG18506                   000000018001e690     c1_test.obj
 0003:000006c8       $SG18507                   000000018001e6c8     c1_test.obj
 0003:000006d0       $SG18508                   000000018001e6d0     c1_test.obj
 0003:000006d8       $SG18509                   000000018001e6d8     c1_test.obj
 0003:000006ec       $SG17981                   000000018001e6ec     c1_test.obj
 0003:000006f0       $SG18510                   000000018001e6f0     c1_test.obj
 0003:00000700       $SG18511                   000000018001e700     c1_test.obj
 0003:00000710       $SG18513                   000000018001e710     c1_test.obj
 0003:0000071c       $SG18663                   000000018001e71c     c1_test.obj
 0003:00000724       $SG17996                   000000018001e724     c1_test.obj
 0003:00000728       $SG18514                   000000018001e728     c1_test.obj
 0003:00000734       $SG18664                   000000018001e734     c1_test.obj
 0003:0000073c       $SG17997                   000000018001e73c     c1_test.obj
 0003:00000740       $SG18515                   000000018001e740     c1_test.obj
 0003:00000780       $SG18516                   000000018001e780     c1_test.obj
 0003:0000078c       $SG17998                   000000018001e78c     c1_test.obj
 0003:00000790       $SG18517                   000000018001e790     c1_test.obj
 0003:0000079c       $SG17999                   000000018001e79c     c1_test.obj
 0003:000007a0       $SG18518                   000000018001e7a0     c1_test.obj
 0003:000007ac       $SG18020                   000000018001e7ac     c1_test.obj
 0003:000007b0       $SG18519                   000000018001e7b0     c1_test.obj
 0003:000007bc       $SG18021                   000000018001e7bc     c1_test.obj
 0003:000007c0       $SG18520                   000000018001e7c0     c1_test.obj
 0003:000007cc       $SG18022                   000000018001e7cc     c1_test.obj
 0003:000007d0       $SG18521                   000000018001e7d0     c1_test.obj
 0003:000007dc       $SG18023                   000000018001e7dc     c1_test.obj
 0003:000007e0       $SG18522                   000000018001e7e0     c1_test.obj
 0003:000007ec       $SG18044                   000000018001e7ec     c1_test.obj
 0003:000007f0       $SG18523                   000000018001e7f0     c1_test.obj
 0003:000007fc       $SG18045                   000000018001e7fc     c1_test.obj
 0003:00000800       $SG17587                   000000018001e800     c1_test.obj
 0003:00000814       $SG18669                   000000018001e814     c1_test.obj
 0003:0000081c       $SG18046                   000000018001e81c     c1_test.obj
 0003:00000820       $SG18661                   000000018001e820     c1_test.obj
 0003:0000082c       $SG18670                   000000018001e82c     c1_test.obj
 0003:00000834       $SG18047                   000000018001e834     c1_test.obj
 0003:00000838       $SG18662                   000000018001e838     c1_test.obj
 0003:00000844       $SG18693                   000000018001e844     c1_test.obj
 0003:0000084c       $SG18715                   000000018001e84c     c1_test.obj
 0003:00000854       $SG18068                   000000018001e854     c1_test.obj
 0003:00000858       $SG18665                   000000018001e858     c1_test.obj
 0003:00000864       $SG18069                   000000018001e864     c1_test.obj
 0003:00000868       $SG18666                   000000018001e868     c1_test.obj
 0003:00000874       $SG18070                   000000018001e874     c1_test.obj
 0003:00000878       $SG18667                   000000018001e878     c1_test.obj
 0003:00000880       $SG18668                   000000018001e880     c1_test.obj
 0003:00000888       $SG18671                   000000018001e888     c1_test.obj
 0003:00000898       $SG18672                   000000018001e898     c1_test.obj
 0003:000008a8       $SG18675                   000000018001e8a8     c1_test.obj
 0003:000008c0       $SG18676                   000000018001e8c0     c1_test.obj
 0003:000008cc       $SG18678                   000000018001e8cc     c1_test.obj
 0003:000008d4       $SG18679                   000000018001e8d4     c1_test.obj
 0003:000008dc       $SG18680                   000000018001e8dc     c1_test.obj
 0003:000008e4       $SG18681                   000000018001e8e4     c1_test.obj
 0003:000008ec       $SG18694                   000000018001e8ec     c1_test.obj
 0003:000008f4       $SG18741                   000000018001e8f4     c1_test.obj
 0003:000008fc       $SG18071                   000000018001e8fc     c1_test.obj
 0003:00000900       $SG18682                   000000018001e900     c1_test.obj
 0003:0000090c       $SG18077                   000000018001e90c     c1_test.obj
 0003:00000910       $SG18683                   000000018001e910     c1_test.obj
 0003:0000091c       $SG18689                   000000018001e91c     c1_test.obj
 0003:00000924       $SG18691                   000000018001e924     c1_test.obj
 0003:0000092c       $SG18692                   000000018001e92c     c1_test.obj
 0003:00000934       $SG18696                   000000018001e934     c1_test.obj
 0003:0000093c       $SG18697                   000000018001e93c     c1_test.obj
 0003:00000944       $SG18698                   000000018001e944     c1_test.obj
 0003:0000094c       $SG18708                   000000018001e94c     c1_test.obj
 0003:00000954       $SG17984                   000000018001e954     c1_test.obj
 0003:0000095c       $SG18092                   000000018001e95c     c1_test.obj
 0003:00000960       $SG18699                   000000018001e960     c1_test.obj
 0003:0000096c       $SG18704                   000000018001e96c     c1_test.obj
 0003:00000974       $SG18706                   000000018001e974     c1_test.obj
 0003:0000097c       $SG18707                   000000018001e97c     c1_test.obj
 0003:00000984       $SG18709                   000000018001e984     c1_test.obj
 0003:0000098c       $SG18711                   000000018001e98c     c1_test.obj
 0003:00000994       $SG18712                   000000018001e994     c1_test.obj
 0003:0000099c       $SG18713                   000000018001e99c     c1_test.obj
 0003:000009a4       $SG18733                   000000018001e9a4     c1_test.obj
 0003:000009ac       $SG18008                   000000018001e9ac     c1_test.obj
 0003:000009b4       $SG18093                   000000018001e9b4     c1_test.obj
 0003:000009b8       $SG18714                   000000018001e9b8     c1_test.obj
 0003:000009c4       $SG18094                   000000018001e9c4     c1_test.obj
 0003:000009c8       $SG18716                   000000018001e9c8     c1_test.obj
 0003:000009d4       $SG18718                   000000018001e9d4     c1_test.obj
 0003:000009dc       $SG18719                   000000018001e9dc     c1_test.obj
 0003:000009e4       $SG18720                   000000018001e9e4     c1_test.obj
 0003:000009ec       $SG18721                   000000018001e9ec     c1_test.obj
 0003:000009f4       $SG18734                   000000018001e9f4     c1_test.obj
 0003:000009fc       $SG18032                   000000018001e9fc     c1_test.obj
 0003:00000a04       $SG18095                   000000018001ea04     c1_test.obj
 0003:00000a08       $SG18722                   000000018001ea08     c1_test.obj
 0003:00000a14       $SG18116                   000000018001ea14     c1_test.obj
 0003:00000a18       $SG18723                   000000018001ea18     c1_test.obj
 0003:00000a24       $SG18729                   000000018001ea24     c1_test.obj
 0003:00000a2c       $SG18731                   000000018001ea2c     c1_test.obj
 0003:00000a34       $SG18732                   000000018001ea34     c1_test.obj
 0003:00000a3c       $SG18736                   000000018001ea3c     c1_test.obj
 0003:00000a44       $SG18737                   000000018001ea44     c1_test.obj
 0003:00000a4c       $SG18738                   000000018001ea4c     c1_test.obj
 0003:00000a54       $SG18764                   000000018001ea54     c1_test.obj
 0003:00000a5c       $SG18056                   000000018001ea5c     c1_test.obj
 0003:00000a64       $SG18117                   000000018001ea64     c1_test.obj
 0003:00000a68       $SG18739                   000000018001ea68     c1_test.obj
 0003:00000a74       $SG18118                   000000018001ea74     c1_test.obj
 0003:00000a78       $SG18740                   000000018001ea78     c1_test.obj
 0003:00000a80       $SG18743                   000000018001ea80     c1_test.obj
 0003:00000a90       $SG18752                   000000018001ea90     c1_test.obj
 0003:00000aa0       $SG18753                   000000018001eaa0     c1_test.obj
 0003:00000ab0       $SG18754                   000000018001eab0     c1_test.obj
 0003:00000ac0       $SG18755                   000000018001eac0     c1_test.obj
 0003:00000ad0       $SG18756                   000000018001ead0     c1_test.obj
 0003:00000ae4       $SG18119                   000000018001eae4     c1_test.obj
 0003:00000ae8       $SG18757                   000000018001eae8     c1_test.obj
 0003:00000b00       $SG17734                   000000018001eb00     c1_test.obj
 0003:00000b5c       $SG18125                   000000018001eb5c     c1_test.obj
 0003:00000b60       $SG18760                   000000018001eb60     c1_test.obj
 0003:00000b6c       $SG18140                   000000018001eb6c     c1_test.obj
 0003:00000b70       $SG18772                   000000018001eb70     c1_test.obj
 0003:00000b94       $SG18817                   000000018001eb94     c1_test.obj
 0003:00000b9c       $SG18080                   000000018001eb9c     c1_test.obj
 0003:00000ba4       $SG18141                   000000018001eba4     c1_test.obj
 0003:00000ba8       $SG18773                   000000018001eba8     c1_test.obj
 0003:00000bcc       $SG18940                   000000018001ebcc     c1_test.obj
 0003:00000bd4       $SG18104                   000000018001ebd4     c1_test.obj
 0003:00000bdc       $SG18142                   000000018001ebdc     c1_test.obj
 0003:00000be0       $SG18774                   000000018001ebe0     c1_test.obj
 0003:00000bfc       $SG18128                   000000018001ebfc     c1_test.obj
 0003:00000c04       $SG18143                   000000018001ec04     c1_test.obj
 0003:00000c08       $SG18775                   000000018001ec08     c1_test.obj
 0003:00000c24       $SG18152                   000000018001ec24     c1_test.obj
 0003:00000c2c       $SG18164                   000000018001ec2c     c1_test.obj
 0003:00000c30       $SG18782                   000000018001ec30     c1_test.obj
 0003:00000c54       $SG18165                   000000018001ec54     c1_test.obj
 0003:00000c58       $SG18783                   000000018001ec58     c1_test.obj
 0003:00000c74       $SG18166                   000000018001ec74     c1_test.obj
 0003:00000c78       $SG18788                   000000018001ec78     c1_test.obj
 0003:00000c88       $SG18789                   000000018001ec88     c1_test.obj
 0003:00000c98       $SG18790                   000000018001ec98     c1_test.obj
 0003:00000ca0       $SG18791                   000000018001eca0     c1_test.obj
 0003:00000ca8       $SG18846                   000000018001eca8     c1_test.obj
 0003:00000cc0       $SG18794                   000000018001ecc0     c1_test.obj
 0003:00000d20       $SG18795                   000000018001ed20     c1_test.obj
 0003:00000d80       $SG18823                   000000018001ed80     c1_test.obj
 0003:00000d90       $SG18824                   000000018001ed90     c1_test.obj
 0003:00000da0       $SG17880                   000000018001eda0     c1_test.obj
 0003:00000dac       $SG18167                   000000018001edac     c1_test.obj
 0003:00000db0       $SG18947                   000000018001edb0     c1_test.obj
 0003:00000dd4       $SG18188                   000000018001edd4     c1_test.obj
 0003:00000dd8       $SG18968                   000000018001edd8     c1_test.obj
 0003:00000de8       $SG18969                   000000018001ede8     c1_test.obj
 0003:00000dfc       $SG18189                   000000018001edfc     c1_test.obj
 0003:00000e00       $SG18983                   000000018001ee00     c1_test.obj
 0003:00000e30       $SG17976                   000000018001ee30     c1_test.obj
 0003:00000e38       $SG17977                   000000018001ee38     c1_test.obj
 0003:00000e40       $SG17979                   000000018001ee40     c1_test.obj
 0003:00000e48       $SG17980                   000000018001ee48     c1_test.obj
 0003:00000e50       $SG17982                   000000018001ee50     c1_test.obj
 0003:00000e60       $SG17983                   000000018001ee60     c1_test.obj
 0003:00000e70       $SG17985                   000000018001ee70     c1_test.obj
 0003:00000e7c       $SG18173                   000000018001ee7c     c1_test.obj
 0003:00000e84       $SG18176                   000000018001ee84     c1_test.obj
 0003:00000e8c       $SG18190                   000000018001ee8c     c1_test.obj
 0003:00000e90       $SG17986                   000000018001ee90     c1_test.obj
 0003:00000ea0       $SG19011                   000000018001eea0     c1_test.obj
 0003:00000efc       $SG18191                   000000018001eefc     c1_test.obj
 0003:00000f00       $SG17987                   000000018001ef00     c1_test.obj
 0003:00000f38       $SG17988                   000000018001ef38     c1_test.obj
 0003:00000f44       $SG18212                   000000018001ef44     c1_test.obj
 0003:00000f48       $SG17989                   000000018001ef48     c1_test.obj
 0003:00000f54       $SG18213                   000000018001ef54     c1_test.obj
 0003:00000f58       $SG17990                   000000018001ef58     c1_test.obj
 0003:00000f64       $SG18214                   000000018001ef64     c1_test.obj
 0003:00000f68       $SG17991                   000000018001ef68     c1_test.obj
 0003:00000f74       $SG18215                   000000018001ef74     c1_test.obj
 0003:00000f78       $SG17992                   000000018001ef78     c1_test.obj
 0003:00000f84       $SG18236                   000000018001ef84     c1_test.obj
 0003:00000f88       $SG17993                   000000018001ef88     c1_test.obj
 0003:00000f94       $SG18237                   000000018001ef94     c1_test.obj
 0003:00000f98       $SG17994                   000000018001ef98     c1_test.obj
 0003:00000fa4       $SG18238                   000000018001efa4     c1_test.obj
 0003:00000fa8       $SG17995                   000000018001efa8     c1_test.obj
 0003:00000fb4       $SG18239                   000000018001efb4     c1_test.obj
 0003:00000fb8       $SG18000                   000000018001efb8     c1_test.obj
 0003:00000fc0       $SG18001                   000000018001efc0     c1_test.obj
 0003:00000fc8       $SG18002                   000000018001efc8     c1_test.obj
 0003:00001000       $SG18003                   000000018001f000     c1_test.obj
 0003:00001008       $SG18004                   000000018001f008     c1_test.obj
 0003:00001010       $SG18005                   000000018001f010     c1_test.obj
 0003:00001030       $SG18006                   000000018001f030     c1_test.obj
 0003:00001040       $SG18007                   000000018001f040     c1_test.obj
 0003:00001050       $SG18009                   000000018001f050     c1_test.obj
 0003:0000105c       $SG18200                   000000018001f05c     c1_test.obj
 0003:00001064       $SG18260                   000000018001f064     c1_test.obj
 0003:00001068       $SG18010                   000000018001f068     c1_test.obj
 0003:00001078       $SG18012                   000000018001f078     c1_test.obj
 0003:00001088       $SG18016                   000000018001f088     c1_test.obj
 0003:00001094       $SG18027                   000000018001f094     c1_test.obj
 0003:000010a0       $SG18011                   000000018001f0a0     c1_test.obj
 0003:000010f4       $SG18224                   000000018001f0f4     c1_test.obj
 0003:000010fc       $SG18261                   000000018001f0fc     c1_test.obj
 0003:00001100       $SG18013                   000000018001f100     c1_test.obj
 0003:0000110c       $SG18262                   000000018001f10c     c1_test.obj
 0003:00001110       $SG18014                   000000018001f110     c1_test.obj
 0003:0000111c       $SG18263                   000000018001f11c     c1_test.obj
 0003:00001120       $SG18015                   000000018001f120     c1_test.obj
 0003:0000112c       $SG18284                   000000018001f12c     c1_test.obj
 0003:00001130       $SG18017                   000000018001f130     c1_test.obj
 0003:0000113c       $SG18285                   000000018001f13c     c1_test.obj
 0003:00001140       $SG18018                   000000018001f140     c1_test.obj
 0003:0000114c       $SG18286                   000000018001f14c     c1_test.obj
 0003:00001150       $SG18019                   000000018001f150     c1_test.obj
 0003:0000115c       $SG18287                   000000018001f15c     c1_test.obj
 0003:00001160       $SG18024                   000000018001f160     c1_test.obj
 0003:00001168       $SG18025                   000000018001f168     c1_test.obj
 0003:00001170       $SG18026                   000000018001f170     c1_test.obj
 0003:000011a8       $SG18028                   000000018001f1a8     c1_test.obj
 0003:000011b0       $SG18029                   000000018001f1b0     c1_test.obj
 0003:000011c0       $SG18030                   000000018001f1c0     c1_test.obj
 0003:000011d0       $SG18031                   000000018001f1d0     c1_test.obj
 0003:000011e0       $SG18033                   000000018001f1e0     c1_test.obj
 0003:000011ec       $SG18248                   000000018001f1ec     c1_test.obj
 0003:000011f4       $SG18308                   000000018001f1f4     c1_test.obj
 0003:000011f8       $SG18034                   000000018001f1f8     c1_test.obj
 0003:00001208       $SG18036                   000000018001f208     c1_test.obj
 0003:00001218       $SG18040                   000000018001f218     c1_test.obj
 0003:00001224       $SG18051                   000000018001f224     c1_test.obj
 0003:00001230       $SG18035                   000000018001f230     c1_test.obj
 0003:00001274       $SG18272                   000000018001f274     c1_test.obj
 0003:0000127c       $SG18309                   000000018001f27c     c1_test.obj
 0003:00001280       $SG18037                   000000018001f280     c1_test.obj
 0003:0000128c       $SG18310                   000000018001f28c     c1_test.obj
 0003:00001290       $SG18038                   000000018001f290     c1_test.obj
 0003:0000129c       $SG18311                   000000018001f29c     c1_test.obj
 0003:000012a0       $SG18039                   000000018001f2a0     c1_test.obj
 0003:000012ac       $SG18332                   000000018001f2ac     c1_test.obj
 0003:000012b0       $SG18041                   000000018001f2b0     c1_test.obj
 0003:000012bc       $SG18333                   000000018001f2bc     c1_test.obj
 0003:000012c0       $SG18042                   000000018001f2c0     c1_test.obj
 0003:000012cc       $SG18334                   000000018001f2cc     c1_test.obj
 0003:000012d0       $SG18043                   000000018001f2d0     c1_test.obj
 0003:000012dc       $SG18335                   000000018001f2dc     c1_test.obj
 0003:000012e0       $SG18048                   000000018001f2e0     c1_test.obj
 0003:000012e8       $SG18049                   000000018001f2e8     c1_test.obj
 0003:000012f0       $SG18052                   000000018001f2f0     c1_test.obj
 0003:000012f8       $SG18053                   000000018001f2f8     c1_test.obj
 0003:00001308       $SG18054                   000000018001f308     c1_test.obj
 0003:00001318       $SG18055                   000000018001f318     c1_test.obj
 0003:00001328       $SG18057                   000000018001f328     c1_test.obj
 0003:00001334       $SG18296                   000000018001f334     c1_test.obj
 0003:0000133c       $SG17317                   000000018001f33c     c1_test.obj
 0003:00001340       $SG18058                   000000018001f340     c1_test.obj
 0003:00001350       $SG18059                   000000018001f350     c1_test.obj
 0003:000013b0       $SG18060                   000000018001f3b0     c1_test.obj
 0003:000013bc       $SG17319                   000000018001f3bc     c1_test.obj
 0003:000013c0       $SG18061                   000000018001f3c0     c1_test.obj
 0003:000013cc       $SG17321                   000000018001f3cc     c1_test.obj
 0003:000013d0       $SG18062                   000000018001f3d0     c1_test.obj
 0003:000013dc       $SG17322                   000000018001f3dc     c1_test.obj
 0003:000013e0       $SG18063                   000000018001f3e0     c1_test.obj
 0003:000013ec       $SG17323                   000000018001f3ec     c1_test.obj
 0003:000013f0       $SG18064                   000000018001f3f0     c1_test.obj
 0003:000013fc       $SG17324                   000000018001f3fc     c1_test.obj
 0003:00001400       $SG18065                   000000018001f400     c1_test.obj
 0003:0000140c       $SG17325                   000000018001f40c     c1_test.obj
 0003:00001410       $SG18066                   000000018001f410     c1_test.obj
 0003:0000141c       $SG17326                   000000018001f41c     c1_test.obj
 0003:00001420       $SG18067                   000000018001f420     c1_test.obj
 0003:0000142c       $SG17327                   000000018001f42c     c1_test.obj
 0003:00001430       $SG18072                   000000018001f430     c1_test.obj
 0003:00001438       $SG18073                   000000018001f438     c1_test.obj
 0003:00001440       $SG18074                   000000018001f440     c1_test.obj
 0003:000014a0       $SG18075                   000000018001f4a0     c1_test.obj
 0003:000014a8       $SG18076                   000000018001f4a8     c1_test.obj
 0003:000014b0       $SG18078                   000000018001f4b0     c1_test.obj
 0003:000014c0       $SG18079                   000000018001f4c0     c1_test.obj
 0003:000014d0       $SG18081                   000000018001f4d0     c1_test.obj
 0003:000014dc       $SG18317                   000000018001f4dc     c1_test.obj
 0003:000014e4       $SG18320                   000000018001f4e4     c1_test.obj
 0003:000014ec       $SG17328                   000000018001f4ec     c1_test.obj
 0003:000014f0       $SG18082                   000000018001f4f0     c1_test.obj
 0003:000014fc       $SG17315                   000000018001f4fc     c1_test.obj
 0003:00001504       $SG17329                   000000018001f504     c1_test.obj
 0003:00001508       $SG18083                   000000018001f508     c1_test.obj
 0003:00001540       $SG18084                   000000018001f540     c1_test.obj
 0003:0000154c       $SG17330                   000000018001f54c     c1_test.obj
 0003:00001550       $SG18085                   000000018001f550     c1_test.obj
 0003:0000155c       $SG17331                   000000018001f55c     c1_test.obj
 0003:00001560       $SG18086                   000000018001f560     c1_test.obj
 0003:0000156c       $SG18356                   000000018001f56c     c1_test.obj
 0003:00001570       $SG18087                   000000018001f570     c1_test.obj
 0003:0000157c       $SG17332                   000000018001f57c     c1_test.obj
 0003:00001580       $SG18088                   000000018001f580     c1_test.obj
 0003:0000158c       $SG18357                   000000018001f58c     c1_test.obj
 0003:00001590       $SG18089                   000000018001f590     c1_test.obj
 0003:0000159c       $SG17333                   000000018001f59c     c1_test.obj
 0003:000015a0       $SG18090                   000000018001f5a0     c1_test.obj
 0003:000015ac       $SG18358                   000000018001f5ac     c1_test.obj
 0003:000015b0       $SG18091                   000000018001f5b0     c1_test.obj
 0003:000015bc       $SG17334                   000000018001f5bc     c1_test.obj
 0003:000015c0       $SG18096                   000000018001f5c0     c1_test.obj
 0003:000015c8       $SG18097                   000000018001f5c8     c1_test.obj
 0003:000015d0       $SG18098                   000000018001f5d0     c1_test.obj
 0003:00001608       $SG18099                   000000018001f608     c1_test.obj
 0003:00001610       $SG18100                   000000018001f610     c1_test.obj
 0003:00001618       $SG18101                   000000018001f618     c1_test.obj
 0003:00001628       $SG18102                   000000018001f628     c1_test.obj
 0003:00001638       $SG18103                   000000018001f638     c1_test.obj
 0003:00001648       $SG18105                   000000018001f648     c1_test.obj
 0003:00001654       $SG17318                   000000018001f654     c1_test.obj
 0003:0000165c       $SG18344                   000000018001f65c     c1_test.obj
 0003:00001664       $SG18359                   000000018001f664     c1_test.obj
 0003:00001668       $SG18106                   000000018001f668     c1_test.obj
 0003:00001678       $SG18108                   000000018001f678     c1_test.obj
 0003:00001688       $SG18112                   000000018001f688     c1_test.obj
 0003:00001694       $SG18123                   000000018001f694     c1_test.obj
 0003:000016a0       $SG18107                   000000018001f6a0     c1_test.obj
 0003:000016e4       $SG17335                   000000018001f6e4     c1_test.obj
 0003:000016e8       $SG18109                   000000018001f6e8     c1_test.obj
 0003:000016f4       $SG17336                   000000018001f6f4     c1_test.obj
 0003:000016f8       $SG18110                   000000018001f6f8     c1_test.obj
 0003:00001704       $SG17337                   000000018001f704     c1_test.obj
 0003:00001708       $SG18111                   000000018001f708     c1_test.obj
 0003:00001714       $SG17338                   000000018001f714     c1_test.obj
 0003:00001718       $SG18113                   000000018001f718     c1_test.obj
 0003:00001724       $SG17339                   000000018001f724     c1_test.obj
 0003:00001728       $SG18114                   000000018001f728     c1_test.obj
 0003:00001734       $SG17340                   000000018001f734     c1_test.obj
 0003:00001738       $SG18115                   000000018001f738     c1_test.obj
 0003:00001744       $SG17341                   000000018001f744     c1_test.obj
 0003:00001748       $SG18120                   000000018001f748     c1_test.obj
 0003:00001750       $SG18121                   000000018001f750     c1_test.obj
 0003:00001758       $SG18124                   000000018001f758     c1_test.obj
 0003:00001760       $SG18122                   000000018001f760     c1_test.obj
 0003:000017c0       $SG18126                   000000018001f7c0     c1_test.obj
 0003:000017d0       $SG18127                   000000018001f7d0     c1_test.obj
 0003:000017e0       $SG18129                   000000018001f7e0     c1_test.obj
 0003:000017ec       $SG17342                   000000018001f7ec     c1_test.obj
 0003:000017f0       $SG18130                   000000018001f7f0     c1_test.obj
 0003:000017fc       $SG17343                   000000018001f7fc     c1_test.obj
 0003:00001800       $SG18131                   000000018001f800     c1_test.obj
 0003:00001838       $SG18132                   000000018001f838     c1_test.obj
 0003:00001844       $SG17344                   000000018001f844     c1_test.obj
 0003:00001848       $SG18133                   000000018001f848     c1_test.obj
 0003:00001854       $SG17345                   000000018001f854     c1_test.obj
 0003:00001858       $SG18134                   000000018001f858     c1_test.obj
 0003:00001864       $SG17346                   000000018001f864     c1_test.obj
 0003:00001868       $SG18135                   000000018001f868     c1_test.obj
 0003:00001874       $SG17347                   000000018001f874     c1_test.obj
 0003:00001878       $SG18136                   000000018001f878     c1_test.obj
 0003:00001884       $SG17348                   000000018001f884     c1_test.obj
 0003:00001888       $SG18137                   000000018001f888     c1_test.obj
 0003:00001894       $SG17349                   000000018001f894     c1_test.obj
 0003:00001898       $SG18138                   000000018001f898     c1_test.obj
 0003:000018a4       $SG17350                   000000018001f8a4     c1_test.obj
 0003:000018a8       $SG18139                   000000018001f8a8     c1_test.obj
 0003:000018b4       $SG17351                   000000018001f8b4     c1_test.obj
 0003:000018b8       $SG18144                   000000018001f8b8     c1_test.obj
 0003:000018c0       $SG18145                   000000018001f8c0     c1_test.obj
 0003:000018c8       $SG18146                   000000018001f8c8     c1_test.obj
 0003:00001900       $SG18147                   000000018001f900     c1_test.obj
 0003:00001908       $SG18148                   000000018001f908     c1_test.obj
 0003:00001910       $SG18149                   000000018001f910     c1_test.obj
 0003:00001920       $SG18150                   000000018001f920     c1_test.obj
 0003:00001930       $SG18151                   000000018001f930     c1_test.obj
 0003:00001940       $SG18153                   000000018001f940     c1_test.obj
 0003:0000194c       $SG18368                   000000018001f94c     c1_test.obj
 0003:00001954       $SG17352                   000000018001f954     c1_test.obj
 0003:00001958       $SG18154                   000000018001f958     c1_test.obj
 0003:00001968       $SG18156                   000000018001f968     c1_test.obj
 0003:00001978       $SG18160                   000000018001f978     c1_test.obj
 0003:00001984       $SG18171                   000000018001f984     c1_test.obj
 0003:00001990       $SG18155                   000000018001f990     c1_test.obj
 0003:000019d4       $SG17353                   000000018001f9d4     c1_test.obj
 0003:000019d8       $SG18157                   000000018001f9d8     c1_test.obj
 0003:000019e4       $SG17354                   000000018001f9e4     c1_test.obj
 0003:000019e8       $SG18158                   000000018001f9e8     c1_test.obj
 0003:000019f4       $SG18380                   000000018001f9f4     c1_test.obj
 0003:000019f8       $SG18159                   000000018001f9f8     c1_test.obj
 0003:00001a04       $SG18381                   000000018001fa04     c1_test.obj
 0003:00001a08       $SG18161                   000000018001fa08     c1_test.obj
 0003:00001a14       $SG18382                   000000018001fa14     c1_test.obj
 0003:00001a18       $SG18162                   000000018001fa18     c1_test.obj
 0003:00001a24       $SG18383                   000000018001fa24     c1_test.obj
 0003:00001a28       $SG18163                   000000018001fa28     c1_test.obj
 0003:00001a34       $SG18404                   000000018001fa34     c1_test.obj
 0003:00001a38       $SG18168                   000000018001fa38     c1_test.obj
 0003:00001a40       $SG18169                   000000018001fa40     c1_test.obj
 0003:00001a48       $SG18172                   000000018001fa48     c1_test.obj
 0003:00001a50       $SG18170                   000000018001fa50     c1_test.obj
 0003:00001ab0       $SG18174                   000000018001fab0     c1_test.obj
 0003:00001ac0       $SG18175                   000000018001fac0     c1_test.obj
 0003:00001ad0       $SG18177                   000000018001fad0     c1_test.obj
 0003:00001adc       $SG17355                   000000018001fadc     c1_test.obj
 0003:00001ae4       $SG18405                   000000018001fae4     c1_test.obj
 0003:00001ae8       $SG18178                   000000018001fae8     c1_test.obj
 0003:00001af4       $SG18392                   000000018001faf4     c1_test.obj
 0003:00001afc       $SG18406                   000000018001fafc     c1_test.obj
 0003:00001b00       $SG18179                   000000018001fb00     c1_test.obj
 0003:00001b38       $SG18180                   000000018001fb38     c1_test.obj
 0003:00001b44       $SG18407                   000000018001fb44     c1_test.obj
 0003:00001b48       $SG18181                   000000018001fb48     c1_test.obj
 0003:00001b54       $SG18428                   000000018001fb54     c1_test.obj
 0003:00001b58       $SG18182                   000000018001fb58     c1_test.obj
 0003:00001b64       $SG18429                   000000018001fb64     c1_test.obj
 0003:00001b68       $SG18183                   000000018001fb68     c1_test.obj
 0003:00001b74       $SG18430                   000000018001fb74     c1_test.obj
 0003:00001b78       $SG18184                   000000018001fb78     c1_test.obj
 0003:00001b84       $SG18431                   000000018001fb84     c1_test.obj
 0003:00001b88       $SG18185                   000000018001fb88     c1_test.obj
 0003:00001b98       $SG18186                   000000018001fb98     c1_test.obj
 0003:00001ba8       $SG18187                   000000018001fba8     c1_test.obj
 0003:00001bb8       $SG18192                   000000018001fbb8     c1_test.obj
 0003:00001bc0       $SG18193                   000000018001fbc0     c1_test.obj
 0003:00001bc8       $SG18194                   000000018001fbc8     c1_test.obj
 0003:00001c00       $SG18195                   000000018001fc00     c1_test.obj
 0003:00001c08       $SG18196                   000000018001fc08     c1_test.obj
 0003:00001c10       $SG18197                   000000018001fc10     c1_test.obj
 0003:00001c30       $SG18198                   000000018001fc30     c1_test.obj
 0003:00001c40       $SG18199                   000000018001fc40     c1_test.obj
 0003:00001c50       $SG18201                   000000018001fc50     c1_test.obj
 0003:00001c60       $SG18202                   000000018001fc60     c1_test.obj
 0003:00001c70       $SG18203                   000000018001fc70     c1_test.obj
 0003:00001cc8       $SG18204                   000000018001fcc8     c1_test.obj
 0003:00001cd8       $SG18205                   000000018001fcd8     c1_test.obj
 0003:00001ce8       $SG18206                   000000018001fce8     c1_test.obj
 0003:00001cf8       $SG18207                   000000018001fcf8     c1_test.obj
 0003:00001d08       $SG18208                   000000018001fd08     c1_test.obj
 0003:00001d18       $SG18209                   000000018001fd18     c1_test.obj
 0003:00001d28       $SG18210                   000000018001fd28     c1_test.obj
 0003:00001d38       $SG18211                   000000018001fd38     c1_test.obj
 0003:00001d48       $SG18216                   000000018001fd48     c1_test.obj
 0003:00001d50       $SG18217                   000000018001fd50     c1_test.obj
 0003:00001d58       $SG18218                   000000018001fd58     c1_test.obj
 0003:00001d98       $SG18219                   000000018001fd98     c1_test.obj
 0003:00001da0       $SG18220                   000000018001fda0     c1_test.obj
 0003:00001da8       $SG18221                   000000018001fda8     c1_test.obj
 0003:00001db8       $SG18222                   000000018001fdb8     c1_test.obj
 0003:00001dc8       $SG18223                   000000018001fdc8     c1_test.obj
 0003:00001dd8       $SG18225                   000000018001fdd8     c1_test.obj
 0003:00001de8       $SG18226                   000000018001fde8     c1_test.obj
 0003:00001df8       $SG18227                   000000018001fdf8     c1_test.obj
 0003:00001e38       $SG18228                   000000018001fe38     c1_test.obj
 0003:00001e48       $SG18229                   000000018001fe48     c1_test.obj
 0003:00001e58       $SG18230                   000000018001fe58     c1_test.obj
 0003:00001e68       $SG18231                   000000018001fe68     c1_test.obj
 0003:00001e78       $SG18232                   000000018001fe78     c1_test.obj
 0003:00001e88       $SG18233                   000000018001fe88     c1_test.obj
 0003:00001e98       $SG18234                   000000018001fe98     c1_test.obj
 0003:00001ea8       $SG18235                   000000018001fea8     c1_test.obj
 0003:00001eb8       $SG18240                   000000018001feb8     c1_test.obj
 0003:00001ec0       $SG18241                   000000018001fec0     c1_test.obj
 0003:00001ec8       $SG18242                   000000018001fec8     c1_test.obj
 0003:00001f08       $SG18243                   000000018001ff08     c1_test.obj
 0003:00001f10       $SG18244                   000000018001ff10     c1_test.obj
 0003:00001f18       $SG18245                   000000018001ff18     c1_test.obj
 0003:00001f30       $SG18246                   000000018001ff30     c1_test.obj
 0003:00001f40       $SG18247                   000000018001ff40     c1_test.obj
 0003:00001f50       $SG18249                   000000018001ff50     c1_test.obj
 0003:00001f60       $SG18250                   000000018001ff60     c1_test.obj
 0003:00001f70       $SG18251                   000000018001ff70     c1_test.obj
 0003:00001fb8       $SG18252                   000000018001ffb8     c1_test.obj
 0003:00001fc8       $SG18253                   000000018001ffc8     c1_test.obj
 0003:00001fd8       $SG18254                   000000018001ffd8     c1_test.obj
 0003:00001fe8       $SG18255                   000000018001ffe8     c1_test.obj
 0003:00001ff8       $SG18256                   000000018001fff8     c1_test.obj
 0003:00002008       $SG18257                   0000000180020008     c1_test.obj
 0003:00002018       $SG18258                   0000000180020018     c1_test.obj
 0003:00002028       $SG18259                   0000000180020028     c1_test.obj
 0003:00002038       $SG18264                   0000000180020038     c1_test.obj
 0003:00002040       $SG18265                   0000000180020040     c1_test.obj
 0003:00002048       $SG18266                   0000000180020048     c1_test.obj
 0003:00002088       $SG18267                   0000000180020088     c1_test.obj
 0003:00002090       $SG18268                   0000000180020090     c1_test.obj
 0003:00002098       $SG18269                   0000000180020098     c1_test.obj
 0003:000020b0       $SG18270                   00000001800200b0     c1_test.obj
 0003:000020c0       $SG18271                   00000001800200c0     c1_test.obj
 0003:000020d0       $SG18273                   00000001800200d0     c1_test.obj
 0003:000020e0       $SG18274                   00000001800200e0     c1_test.obj
 0003:000020f0       $SG18275                   00000001800200f0     c1_test.obj
 0003:00002138       $SG18276                   0000000180020138     c1_test.obj
 0003:00002148       $SG18277                   0000000180020148     c1_test.obj
 0003:00002158       $SG18278                   0000000180020158     c1_test.obj
 0003:00002168       $SG18279                   0000000180020168     c1_test.obj
 0003:00002178       $SG18280                   0000000180020178     c1_test.obj
 0003:00002188       $SG18281                   0000000180020188     c1_test.obj
 0003:00002198       $SG18282                   0000000180020198     c1_test.obj
 0003:000021a8       $SG18283                   00000001800201a8     c1_test.obj
 0003:000021b8       $SG18288                   00000001800201b8     c1_test.obj
 0003:000021c0       $SG18289                   00000001800201c0     c1_test.obj
 0003:000021c8       $SG18291                   00000001800201c8     c1_test.obj
 0003:000021d0       $SG18290                   00000001800201d0     c1_test.obj
 0003:00002214       $SG18292                   0000000180020214     c1_test.obj
 0003:00002220       $SG18293                   0000000180020220     c1_test.obj
 0003:00002240       $SG18294                   0000000180020240     c1_test.obj
 0003:00002250       $SG18295                   0000000180020250     c1_test.obj
 0003:00002260       $SG18297                   0000000180020260     c1_test.obj
 0003:00002270       $SG18298                   0000000180020270     c1_test.obj
 0003:00002280       $SG18299                   0000000180020280     c1_test.obj
 0003:000022c8       $SG18300                   00000001800202c8     c1_test.obj
 0003:000022d8       $SG18301                   00000001800202d8     c1_test.obj
 0003:000022e8       $SG18302                   00000001800202e8     c1_test.obj
 0003:000022f8       $SG18303                   00000001800202f8     c1_test.obj
 0003:00002308       $SG18304                   0000000180020308     c1_test.obj
 0003:00002318       $SG18305                   0000000180020318     c1_test.obj
 0003:00002328       $SG18306                   0000000180020328     c1_test.obj
 0003:00002338       $SG18307                   0000000180020338     c1_test.obj
 0003:00002348       $SG18312                   0000000180020348     c1_test.obj
 0003:00002350       $SG18313                   0000000180020350     c1_test.obj
 0003:00002358       $SG18314                   0000000180020358     c1_test.obj
 0003:00002398       $SG18315                   0000000180020398     c1_test.obj
 0003:000023a0       $SG18316                   00000001800203a0     c1_test.obj
 0003:000023a8       $SG18318                   00000001800203a8     c1_test.obj
 0003:000023b8       $SG18319                   00000001800203b8     c1_test.obj
 0003:000023c8       $SG18321                   00000001800203c8     c1_test.obj
 0003:000023d8       $SG18322                   00000001800203d8     c1_test.obj
 0003:000023e8       $SG18323                   00000001800203e8     c1_test.obj
 0003:00002420       $SG18324                   0000000180020420     c1_test.obj
 0003:00002430       $SG18325                   0000000180020430     c1_test.obj
 0003:00002440       $SG18326                   0000000180020440     c1_test.obj
 0003:00002450       $SG18327                   0000000180020450     c1_test.obj
 0003:00002460       $SG18328                   0000000180020460     c1_test.obj
 0003:00002470       $SG18329                   0000000180020470     c1_test.obj
 0003:00002480       c1_debug_family_names      0000000180020480     c1_test.obj
 0003:000024e8       $SG18330                   00000001800204e8     c1_test.obj
 0003:000024f8       $SG18331                   00000001800204f8     c1_test.obj
 0003:00002508       $SG17307                   0000000180020508     c1_test.obj
 0003:00002510       $SG17308                   0000000180020510     c1_test.obj
 0003:00002518       $SG17309                   0000000180020518     c1_test.obj
 0003:00002528       $SG17310                   0000000180020528     c1_test.obj
 0003:00002538       $SG17311                   0000000180020538     c1_test.obj
 0003:00002548       $SG18336                   0000000180020548     c1_test.obj
 0003:00002550       $SG17312                   0000000180020550     c1_test.obj
 0003:00002560       $SG18337                   0000000180020560     c1_test.obj
 0003:00002568       $SG17313                   0000000180020568     c1_test.obj
 0003:00002578       $SG18338                   0000000180020578     c1_test.obj
 0003:000025b0       $SG17314                   00000001800205b0     c1_test.obj
 0003:000025c0       $SG18339                   00000001800205c0     c1_test.obj
 0003:000025c8       $SG18340                   00000001800205c8     c1_test.obj
 0003:000025d0       $SG17316                   00000001800205d0     c1_test.obj
 0003:000025d8       $SG18341                   00000001800205d8     c1_test.obj
 0003:000025f8       $SG18342                   00000001800205f8     c1_test.obj
 0003:00002608       $SG18343                   0000000180020608     c1_test.obj
 0003:00002618       $SG18360                   0000000180020618     c1_test.obj
 0003:00002620       c1_b_debug_family_names    0000000180020620     c1_test.obj
 0003:00002788       $SG18345                   0000000180020788     c1_test.obj
 0003:00002798       $SG18346                   0000000180020798     c1_test.obj
 0003:000027a8       $SG18348                   00000001800207a8     c1_test.obj
 0003:000027b8       $SG18352                   00000001800207b8     c1_test.obj
 0003:000027c4       $SG18363                   00000001800207c4     c1_test.obj
 0003:000027d0       $SG18347                   00000001800207d0     c1_test.obj
 0003:00002828       $SG18349                   0000000180020828     c1_test.obj
 0003:00002838       $SG18350                   0000000180020838     c1_test.obj
 0003:00002848       $SG18351                   0000000180020848     c1_test.obj
 0003:00002858       $SG18353                   0000000180020858     c1_test.obj
 0003:00002868       $SG18354                   0000000180020868     c1_test.obj
 0003:00002878       $SG18355                   0000000180020878     c1_test.obj
 0003:00002888       $SG18361                   0000000180020888     c1_test.obj
 0003:00002890       $SG18362                   0000000180020890     c1_test.obj
 0003:000028c8       $SG18364                   00000001800208c8     c1_test.obj
 0003:000028d0       $SG18365                   00000001800208d0     c1_test.obj
 0003:000028e8       $SG18366                   00000001800208e8     c1_test.obj
 0003:000028f8       $SG18367                   00000001800208f8     c1_test.obj
 0003:00002908       $SG18369                   0000000180020908     c1_test.obj
 0003:00002918       $SG18370                   0000000180020918     c1_test.obj
 0003:00002928       $SG18372                   0000000180020928     c1_test.obj
 0003:00002938       $SG18376                   0000000180020938     c1_test.obj
 0003:00002944       $SG18387                   0000000180020944     c1_test.obj
 0003:00002950       $SG18371                   0000000180020950     c1_test.obj
 0003:00002998       $SG18373                   0000000180020998     c1_test.obj
 0003:000029a8       $SG18374                   00000001800209a8     c1_test.obj
 0003:000029b8       $SG18375                   00000001800209b8     c1_test.obj
 0003:000029c8       $SG18377                   00000001800209c8     c1_test.obj
 0003:000029d8       $SG18378                   00000001800209d8     c1_test.obj
 0003:000029e8       $SG18379                   00000001800209e8     c1_test.obj
 0003:000029f8       $SG17356                   00000001800209f8     c1_test.obj
 0003:00002a00       $SG17357                   0000000180020a00     c1_test.obj
 0003:00002a08       $SG17358                   0000000180020a08     c1_test.obj
 0003:00002a10       $SG17359                   0000000180020a10     c1_test.obj
 0003:00002a20       $SG18384                   0000000180020a20     c1_test.obj
 0003:00002a28       $SG17360                   0000000180020a28     c1_test.obj
 0003:00002a38       $SG18385                   0000000180020a38     c1_test.obj
 0003:00002a40       $SG17361                   0000000180020a40     c1_test.obj
 0003:00002a50       $SG18386                   0000000180020a50     c1_test.obj
 0003:00002aa0       $SG17362                   0000000180020aa0     c1_test.obj
 0003:00002ab0       $SG17363                   0000000180020ab0     c1_test.obj
 0003:00002abc       $SG18388                   0000000180020abc     c1_test.obj
 0003:00002ac8       $SG17364                   0000000180020ac8     c1_test.obj
 0003:00002ad8       $SG18389                   0000000180020ad8     c1_test.obj
 0003:00002ae8       $SG17365                   0000000180020ae8     c1_test.obj
 0003:00002af8       $SG18390                   0000000180020af8     c1_test.obj
 0003:00002b08       $SG18391                   0000000180020b08     c1_test.obj
 0003:00002b18       $SG18393                   0000000180020b18     c1_test.obj
 0003:00002b28       $SG18394                   0000000180020b28     c1_test.obj
 0003:00002b38       $SG18395                   0000000180020b38     c1_test.obj
 0003:00002b78       $SG18396                   0000000180020b78     c1_test.obj
 0003:00002b88       $SG18397                   0000000180020b88     c1_test.obj
 0003:00002b98       $SG18398                   0000000180020b98     c1_test.obj
 0003:00002ba8       $SG18399                   0000000180020ba8     c1_test.obj
 0003:00002bb8       $SG18400                   0000000180020bb8     c1_test.obj
 0003:00002bc8       $SG18401                   0000000180020bc8     c1_test.obj
 0003:00002bd8       $SG18402                   0000000180020bd8     c1_test.obj
 0003:00002be8       $SG18403                   0000000180020be8     c1_test.obj
 0003:00002bf8       $SG18408                   0000000180020bf8     c1_test.obj
 0003:00002c00       $SG18409                   0000000180020c00     c1_test.obj
 0003:00002c08       $SG18411                   0000000180020c08     c1_test.obj
 0003:00002c10       $SG18410                   0000000180020c10     c1_test.obj
 0003:00002c70       $SG18412                   0000000180020c70     c1_test.obj
 0003:00002c78       $SG18413                   0000000180020c78     c1_test.obj
 0003:00002c80       $SG18414                   0000000180020c80     c1_test.obj
 0003:00002c90       $SG18415                   0000000180020c90     c1_test.obj
 0003:00002ca0       $SG18416                   0000000180020ca0     c1_test.obj
 0003:00002ca8       $SG18417                   0000000180020ca8     c1_test.obj
 0003:00002cb8       $SG18418                   0000000180020cb8     c1_test.obj
 0003:00002cc8       $SG18419                   0000000180020cc8     c1_test.obj
 0003:00002d00       $SG18420                   0000000180020d00     c1_test.obj
 0003:00002d10       $SG18421                   0000000180020d10     c1_test.obj
 0003:00002d20       $SG18422                   0000000180020d20     c1_test.obj
 0003:00002d30       $SG18423                   0000000180020d30     c1_test.obj
 0003:00002d40       $SG18424                   0000000180020d40     c1_test.obj
 0003:00002d50       $SG18425                   0000000180020d50     c1_test.obj
 0003:00002d60       $SG18426                   0000000180020d60     c1_test.obj
 0003:00002d70       $SG18427                   0000000180020d70     c1_test.obj
 0003:00002d80       $SG18442                   0000000180020d80     c2_test.obj
 0003:00002d90       $SG18443                   0000000180020d90     c2_test.obj
 0003:00002d9c       $SG18444                   0000000180020d9c     c2_test.obj
 0003:00002da4       $SG18445                   0000000180020da4     c2_test.obj
 0003:00002dac       $SG17532                   0000000180020dac     c2_test.obj
 0003:00002db0       $SG18446                   0000000180020db0     c2_test.obj
 0003:00002dbc       $SG17534                   0000000180020dbc     c2_test.obj
 0003:00002dc0       $SG18447                   0000000180020dc0     c2_test.obj
 0003:00002dcc       $SG17543                   0000000180020dcc     c2_test.obj
 0003:00002dd0       $SG18448                   0000000180020dd0     c2_test.obj
 0003:00002dd8       $SG18449                   0000000180020dd8     c2_test.obj
 0003:00002de0       $SG18450                   0000000180020de0     c2_test.obj
 0003:00002de8       $SG18451                   0000000180020de8     c2_test.obj
 0003:00002df0       $SG18452                   0000000180020df0     c2_test.obj
 0003:00002e00       $SG18453                   0000000180020e00     c2_test.obj
 0003:00002e10       $SG18456                   0000000180020e10     c2_test.obj
 0003:00002e28       $SG18457                   0000000180020e28     c2_test.obj
 0003:00002e34       $SG18459                   0000000180020e34     c2_test.obj
 0003:00002e3c       $SG18460                   0000000180020e3c     c2_test.obj
 0003:00002e44       $SG18461                   0000000180020e44     c2_test.obj
 0003:00002e4c       $SG18462                   0000000180020e4c     c2_test.obj
 0003:00002e54       $SG18474                   0000000180020e54     c2_test.obj
 0003:00002e5c       $SG18481                   0000000180020e5c     c2_test.obj
 0003:00002e64       $SG18581                   0000000180020e64     c2_test.obj
 0003:00002e68       $SG18463                   0000000180020e68     c2_test.obj
 0003:00002e74       $SG18582                   0000000180020e74     c2_test.obj
 0003:00002e78       $SG18464                   0000000180020e78     c2_test.obj
 0003:00002e84       $SG18470                   0000000180020e84     c2_test.obj
 0003:00002e8c       $SG18472                   0000000180020e8c     c2_test.obj
 0003:00002e94       $SG18473                   0000000180020e94     c2_test.obj
 0003:00002e9c       $SG18475                   0000000180020e9c     c2_test.obj
 0003:00002ea4       $SG18477                   0000000180020ea4     c2_test.obj
 0003:00002eac       $SG18478                   0000000180020eac     c2_test.obj
 0003:00002eb4       $SG18479                   0000000180020eb4     c2_test.obj
 0003:00002ebc       $SG18499                   0000000180020ebc     c2_test.obj
 0003:00002ec4       $SG18507                   0000000180020ec4     c2_test.obj
 0003:00002ecc       $SG17590                   0000000180020ecc     c2_test.obj
 0003:00002ed0       $SG18480                   0000000180020ed0     c2_test.obj
 0003:00002edc       $SG17596                   0000000180020edc     c2_test.obj
 0003:00002ee0       $SG18482                   0000000180020ee0     c2_test.obj
 0003:00002eec       $SG18484                   0000000180020eec     c2_test.obj
 0003:00002ef4       $SG18485                   0000000180020ef4     c2_test.obj
 0003:00002efc       $SG18486                   0000000180020efc     c2_test.obj
 0003:00002f04       $SG18487                   0000000180020f04     c2_test.obj
 0003:00002f0c       $SG18500                   0000000180020f0c     c2_test.obj
 0003:00002f14       $SG17591                   0000000180020f14     c2_test.obj
 0003:00002f1c       $SG17647                   0000000180020f1c     c2_test.obj
 0003:00002f20       $SG18488                   0000000180020f20     c2_test.obj
 0003:00002f2c       $SG17710                   0000000180020f2c     c2_test.obj
 0003:00002f30       $SG18489                   0000000180020f30     c2_test.obj
 0003:00002f3c       $SG18495                   0000000180020f3c     c2_test.obj
 0003:00002f44       $SG18497                   0000000180020f44     c2_test.obj
 0003:00002f4c       $SG18498                   0000000180020f4c     c2_test.obj
 0003:00002f54       $SG18502                   0000000180020f54     c2_test.obj
 0003:00002f5c       $SG18503                   0000000180020f5c     c2_test.obj
 0003:00002f64       $SG18504                   0000000180020f64     c2_test.obj
 0003:00002f6c       $SG18530                   0000000180020f6c     c2_test.obj
 0003:00002f74       $SG17753                   0000000180020f74     c2_test.obj
 0003:00002f78       $SG18505                   0000000180020f78     c2_test.obj
 0003:00002f84       $SG17886                   0000000180020f84     c2_test.obj
 0003:00002f88       $SG18506                   0000000180020f88     c2_test.obj
 0003:00002f90       $SG18509                   0000000180020f90     c2_test.obj
 0003:00002fa0       $SG18518                   0000000180020fa0     c2_test.obj
 0003:00002fb0       $SG18519                   0000000180020fb0     c2_test.obj
 0003:00002fc0       $SG18520                   0000000180020fc0     c2_test.obj
 0003:00002fd0       $SG18521                   0000000180020fd0     c2_test.obj
 0003:00002fe0       $SG18522                   0000000180020fe0     c2_test.obj
 0003:00002ff4       $SG17887                   0000000180020ff4     c2_test.obj
 0003:00002ff8       $SG18523                   0000000180020ff8     c2_test.obj
 0003:0000300c       $SG17888                   000000018002100c     c2_test.obj
 0003:00003010       $SG18526                   0000000180021010     c2_test.obj
 0003:0000301c       $SG17889                   000000018002101c     c2_test.obj
 0003:00003020       $SG18538                   0000000180021020     c2_test.obj
 0003:00003044       $SG18699                   0000000180021044     c2_test.obj
 0003:0000304c       $SG17874                   000000018002104c     c2_test.obj
 0003:00003054       $SG17910                   0000000180021054     c2_test.obj
 0003:00003058       $SG18539                   0000000180021058     c2_test.obj
 0003:0000307c       $SG17895                   000000018002107c     c2_test.obj
 0003:00003084       $SG17898                   0000000180021084     c2_test.obj
 0003:0000308c       $SG17911                   000000018002108c     c2_test.obj
 0003:00003090       $SG18540                   0000000180021090     c2_test.obj
 0003:000030ac       $SG17912                   00000001800210ac     c2_test.obj
 0003:000030b0       $SG18541                   00000001800210b0     c2_test.obj
 0003:000030cc       $SG17913                   00000001800210cc     c2_test.obj
 0003:000030d0       $SG18548                   00000001800210d0     c2_test.obj
 0003:000030f4       $SG17922                   00000001800210f4     c2_test.obj
 0003:000030fc       $SG17934                   00000001800210fc     c2_test.obj
 0003:00003100       $SG18549                   0000000180021100     c2_test.obj
 0003:0000311c       $SG17935                   000000018002111c     c2_test.obj
 0003:00003120       $SG18554                   0000000180021120     c2_test.obj
 0003:00003130       $SG18555                   0000000180021130     c2_test.obj
 0003:00003140       $SG18556                   0000000180021140     c2_test.obj
 0003:00003148       $SG18557                   0000000180021148     c2_test.obj
 0003:00003150       $SG18560                   0000000180021150     c2_test.obj
 0003:000031b0       $SG18561                   00000001800211b0     c2_test.obj
 0003:00003210       $SG17547                   0000000180021210     c2_test.obj
 0003:00003224       $SG17936                   0000000180021224     c2_test.obj
 0003:00003228       $SG18588                   0000000180021228     c2_test.obj
 0003:00003238       $SG18589                   0000000180021238     c2_test.obj
 0003:00003244       $SG17937                   0000000180021244     c2_test.obj
 0003:00003248       ?c2_dc0@?1??sf_gateway_c2_test@@9@9 0000000180021248     c2_test.obj
 0003:00003258       ?c2_dc1@?1??sf_gateway_c2_test@@9@9 0000000180021258     c2_test.obj
 0003:00003268       ?c2_dc2@?1??sf_gateway_c2_test@@9@9 0000000180021268     c2_test.obj
 0003:00003278       $SG18605                   0000000180021278     c2_test.obj
 0003:00003290       $SG17597                   0000000180021290     c2_test.obj
 0003:00003298       $SG18706                   0000000180021298     c2_test.obj
 0003:000032c0       $SG17622                   00000001800212c0     c2_test.obj
 0003:00003318       $SG18727                   0000000180021318     c2_test.obj
 0003:00003328       $SG18728                   0000000180021328     c2_test.obj
 0003:0000333c       $SG17958                   000000018002133c     c2_test.obj
 0003:00003340       $SG18742                   0000000180021340     c2_test.obj
 0003:00003370       $SG18770                   0000000180021370     c2_test.obj
 0003:000033cc       $SG17959                   00000001800213cc     c2_test.obj
 0003:000033d0       $SG17786                   00000001800213d0     c2_test.obj
 0003:000033dc       $SG17946                   00000001800213dc     c2_test.obj
 0003:000033e4       $SG17960                   00000001800213e4     c2_test.obj
 0003:000033e8       $SG17866                   00000001800213e8     c2_test.obj
 0003:000033f0       $SG17867                   00000001800213f0     c2_test.obj
 0003:000033f8       $SG17869                   00000001800213f8     c2_test.obj
 0003:00003400       $SG17870                   0000000180021400     c2_test.obj
 0003:00003408       $SG17871                   0000000180021408     c2_test.obj
 0003:00003414       $SG17961                   0000000180021414     c2_test.obj
 0003:00003418       $SG17872                   0000000180021418     c2_test.obj
 0003:00003428       $SG17873                   0000000180021428     c2_test.obj
 0003:00003438       $SG17875                   0000000180021438     c2_test.obj
 0003:00003444       $SG17970                   0000000180021444     c2_test.obj
 0003:0000344c       $SG17982                   000000018002144c     c2_test.obj
 0003:00003450       $SG17876                   0000000180021450     c2_test.obj
 0003:00003460       $SG17877                   0000000180021460     c2_test.obj
 0003:000034bc       $SG17983                   00000001800214bc     c2_test.obj
 0003:000034c0       $SG17878                   00000001800214c0     c2_test.obj
 0003:000034cc       $SG17984                   00000001800214cc     c2_test.obj
 0003:000034d0       $SG17879                   00000001800214d0     c2_test.obj
 0003:000034dc       $SG17985                   00000001800214dc     c2_test.obj
 0003:000034e0       $SG17880                   00000001800214e0     c2_test.obj
 0003:000034ec       $SG18006                   00000001800214ec     c2_test.obj
 0003:000034f0       $SG17881                   00000001800214f0     c2_test.obj
 0003:000034fc       $SG18007                   00000001800214fc     c2_test.obj
 0003:00003500       $SG17882                   0000000180021500     c2_test.obj
 0003:0000350c       $SG18008                   000000018002150c     c2_test.obj
 0003:00003510       $SG17883                   0000000180021510     c2_test.obj
 0003:0000351c       $SG18009                   000000018002151c     c2_test.obj
 0003:00003520       $SG17884                   0000000180021520     c2_test.obj
 0003:0000352c       $SG18030                   000000018002152c     c2_test.obj
 0003:00003530       $SG17885                   0000000180021530     c2_test.obj
 0003:0000353c       $SG18031                   000000018002153c     c2_test.obj
 0003:00003540       $SG17890                   0000000180021540     c2_test.obj
 0003:00003548       $SG17891                   0000000180021548     c2_test.obj
 0003:00003550       $SG17892                   0000000180021550     c2_test.obj
 0003:000035ac       $SG17893                   00000001800215ac     c2_test.obj
 0003:000035b4       $SG17894                   00000001800215b4     c2_test.obj
 0003:000035bc       $SG17994                   00000001800215bc     c2_test.obj
 0003:000035c4       $SG18032                   00000001800215c4     c2_test.obj
 0003:000035c8       $SG17896                   00000001800215c8     c2_test.obj
 0003:000035d8       $SG17897                   00000001800215d8     c2_test.obj
 0003:000035e8       $SG17899                   00000001800215e8     c2_test.obj
 0003:000035f4       $SG18018                   00000001800215f4     c2_test.obj
 0003:000035fc       $SG18033                   00000001800215fc     c2_test.obj
 0003:00003600       $SG17900                   0000000180021600     c2_test.obj
 0003:0000360c       $SG18039                   000000018002160c     c2_test.obj
 0003:00003614       $SG18042                   0000000180021614     c2_test.obj
 0003:0000361c       $SG18054                   000000018002161c     c2_test.obj
 0003:00003620       $SG17901                   0000000180021620     c2_test.obj
 0003:00003658       $SG17902                   0000000180021658     c2_test.obj
 0003:00003664       $SG18055                   0000000180021664     c2_test.obj
 0003:00003668       $SG17903                   0000000180021668     c2_test.obj
 0003:00003674       $SG18056                   0000000180021674     c2_test.obj
 0003:00003678       $SG17904                   0000000180021678     c2_test.obj
 0003:00003684       $SG18057                   0000000180021684     c2_test.obj
 0003:00003688       $SG17905                   0000000180021688     c2_test.obj
 0003:00003694       $SG18078                   0000000180021694     c2_test.obj
 0003:00003698       $SG17906                   0000000180021698     c2_test.obj
 0003:000036a4       $SG18079                   00000001800216a4     c2_test.obj
 0003:000036a8       $SG17907                   00000001800216a8     c2_test.obj
 0003:000036b4       $SG18080                   00000001800216b4     c2_test.obj
 0003:000036b8       $SG17908                   00000001800216b8     c2_test.obj
 0003:000036c4       $SG18081                   00000001800216c4     c2_test.obj
 0003:000036c8       $SG17909                   00000001800216c8     c2_test.obj
 0003:000036d4       $SG18102                   00000001800216d4     c2_test.obj
 0003:000036d8       $SG17914                   00000001800216d8     c2_test.obj
 0003:000036e0       $SG17915                   00000001800216e0     c2_test.obj
 0003:000036e8       $SG17916                   00000001800216e8     c2_test.obj
 0003:00003720       $SG17917                   0000000180021720     c2_test.obj
 0003:00003728       $SG17918                   0000000180021728     c2_test.obj
 0003:00003730       $SG17919                   0000000180021730     c2_test.obj
 0003:00003750       $SG17920                   0000000180021750     c2_test.obj
 0003:00003760       $SG17921                   0000000180021760     c2_test.obj
 0003:00003770       $SG17923                   0000000180021770     c2_test.obj
 0003:0000377c       $SG18066                   000000018002177c     c2_test.obj
 0003:00003784       $SG18103                   0000000180021784     c2_test.obj
 0003:00003788       $SG17924                   0000000180021788     c2_test.obj
 0003:00003798       $SG17926                   0000000180021798     c2_test.obj
 0003:000037a8       $SG17930                   00000001800217a8     c2_test.obj
 0003:000037b4       $SG17941                   00000001800217b4     c2_test.obj
 0003:000037c0       $SG17925                   00000001800217c0     c2_test.obj
 0003:00003814       $SG18090                   0000000180021814     c2_test.obj
 0003:0000381c       $SG18104                   000000018002181c     c2_test.obj
 0003:00003820       $SG17927                   0000000180021820     c2_test.obj
 0003:0000382c       $SG18105                   000000018002182c     c2_test.obj
 0003:00003830       $SG17928                   0000000180021830     c2_test.obj
 0003:0000383c       $SG18126                   000000018002183c     c2_test.obj
 0003:00003840       $SG17929                   0000000180021840     c2_test.obj
 0003:0000384c       $SG18127                   000000018002184c     c2_test.obj
 0003:00003850       $SG17931                   0000000180021850     c2_test.obj
 0003:0000385c       $SG18128                   000000018002185c     c2_test.obj
 0003:00003860       $SG17932                   0000000180021860     c2_test.obj
 0003:0000386c       $SG18129                   000000018002186c     c2_test.obj
 0003:00003870       $SG17933                   0000000180021870     c2_test.obj
 0003:0000387c       $SG18150                   000000018002187c     c2_test.obj
 0003:00003880       $SG17938                   0000000180021880     c2_test.obj
 0003:00003888       $SG17939                   0000000180021888     c2_test.obj
 0003:00003890       $SG17940                   0000000180021890     c2_test.obj
 0003:000038d0       $SG17942                   00000001800218d0     c2_test.obj
 0003:000038d8       $SG17943                   00000001800218d8     c2_test.obj
 0003:000038e8       $SG17944                   00000001800218e8     c2_test.obj
 0003:000038f8       $SG17945                   00000001800218f8     c2_test.obj
 0003:00003908       $SG17947                   0000000180021908     c2_test.obj
 0003:00003914       $SG18114                   0000000180021914     c2_test.obj
 0003:0000391c       $SG18151                   000000018002191c     c2_test.obj
 0003:00003920       $SG17948                   0000000180021920     c2_test.obj
 0003:0000392c       $SG18135                   000000018002192c     c2_test.obj
 0003:00003934       $SG18138                   0000000180021934     c2_test.obj
 0003:0000393c       $SG18152                   000000018002193c     c2_test.obj
 0003:00003940       $SG17949                   0000000180021940     c2_test.obj
 0003:00003980       $SG17950                   0000000180021980     c2_test.obj
 0003:0000398c       $SG18153                   000000018002198c     c2_test.obj
 0003:00003990       $SG17951                   0000000180021990     c2_test.obj
 0003:0000399c       $SG18174                   000000018002199c     c2_test.obj
 0003:000039a0       $SG17952                   00000001800219a0     c2_test.obj
 0003:000039ac       $SG18175                   00000001800219ac     c2_test.obj
 0003:000039b0       $SG17953                   00000001800219b0     c2_test.obj
 0003:000039bc       $SG18176                   00000001800219bc     c2_test.obj
 0003:000039c0       $SG17954                   00000001800219c0     c2_test.obj
 0003:000039cc       $SG18177                   00000001800219cc     c2_test.obj
 0003:000039d0       $SG17955                   00000001800219d0     c2_test.obj
 0003:000039dc       $SG18198                   00000001800219dc     c2_test.obj
 0003:000039e0       $SG17956                   00000001800219e0     c2_test.obj
 0003:000039ec       $SG18199                   00000001800219ec     c2_test.obj
 0003:000039f0       $SG17957                   00000001800219f0     c2_test.obj
 0003:000039fc       $SG18200                   00000001800219fc     c2_test.obj
 0003:00003a00       $SG17962                   0000000180021a00     c2_test.obj
 0003:00003a08       $SG17963                   0000000180021a08     c2_test.obj
 0003:00003a10       $SG17964                   0000000180021a10     c2_test.obj
 0003:00003a50       $SG17965                   0000000180021a50     c2_test.obj
 0003:00003a58       $SG17966                   0000000180021a58     c2_test.obj
 0003:00003a60       $SG17967                   0000000180021a60     c2_test.obj
 0003:00003a78       $SG17968                   0000000180021a78     c2_test.obj
 0003:00003a88       $SG17969                   0000000180021a88     c2_test.obj
 0003:00003a98       $SG17971                   0000000180021a98     c2_test.obj
 0003:00003aa4       $SG18162                   0000000180021aa4     c2_test.obj
 0003:00003aac       $SG18201                   0000000180021aac     c2_test.obj
 0003:00003ab0       $SG17972                   0000000180021ab0     c2_test.obj
 0003:00003ac0       $SG17973                   0000000180021ac0     c2_test.obj
 0003:00003b04       $SG18222                   0000000180021b04     c2_test.obj
 0003:00003b08       $SG17974                   0000000180021b08     c2_test.obj
 0003:00003b14       $SG18223                   0000000180021b14     c2_test.obj
 0003:00003b18       $SG17975                   0000000180021b18     c2_test.obj
 0003:00003b24       $SG18224                   0000000180021b24     c2_test.obj
 0003:00003b28       $SG17976                   0000000180021b28     c2_test.obj
 0003:00003b34       $SG18225                   0000000180021b34     c2_test.obj
 0003:00003b38       $SG17977                   0000000180021b38     c2_test.obj
 0003:00003b44       $SG18246                   0000000180021b44     c2_test.obj
 0003:00003b48       $SG17978                   0000000180021b48     c2_test.obj
 0003:00003b54       $SG18247                   0000000180021b54     c2_test.obj
 0003:00003b58       $SG17979                   0000000180021b58     c2_test.obj
 0003:00003b64       $SG18248                   0000000180021b64     c2_test.obj
 0003:00003b68       $SG17980                   0000000180021b68     c2_test.obj
 0003:00003b74       $SG18249                   0000000180021b74     c2_test.obj
 0003:00003b78       $SG17981                   0000000180021b78     c2_test.obj
 0003:00003b84       $SG18270                   0000000180021b84     c2_test.obj
 0003:00003b88       $SG17986                   0000000180021b88     c2_test.obj
 0003:00003b90       $SG17987                   0000000180021b90     c2_test.obj
 0003:00003b98       $SG17988                   0000000180021b98     c2_test.obj
 0003:00003bd8       $SG17989                   0000000180021bd8     c2_test.obj
 0003:00003be0       $SG17990                   0000000180021be0     c2_test.obj
 0003:00003be8       $SG17991                   0000000180021be8     c2_test.obj
 0003:00003bfc       $SG18186                   0000000180021bfc     c2_test.obj
 0003:00003c04       $SG18271                   0000000180021c04     c2_test.obj
 0003:00003c08       $SG17992                   0000000180021c08     c2_test.obj
 0003:00003c18       $SG17993                   0000000180021c18     c2_test.obj
 0003:00003c28       $SG17995                   0000000180021c28     c2_test.obj
 0003:00003c34       $SG18210                   0000000180021c34     c2_test.obj
 0003:00003c3c       $SG18272                   0000000180021c3c     c2_test.obj
 0003:00003c40       $SG17996                   0000000180021c40     c2_test.obj
 0003:00003c50       $SG17997                   0000000180021c50     c2_test.obj
 0003:00003c94       $SG18234                   0000000180021c94     c2_test.obj
 0003:00003c9c       $SG18273                   0000000180021c9c     c2_test.obj
 0003:00003ca0       $SG17998                   0000000180021ca0     c2_test.obj
 0003:00003cac       $SG18294                   0000000180021cac     c2_test.obj
 0003:00003cb0       $SG17999                   0000000180021cb0     c2_test.obj
 0003:00003cbc       $SG18295                   0000000180021cbc     c2_test.obj
 0003:00003cc0       $SG18000                   0000000180021cc0     c2_test.obj
 0003:00003ccc       $SG18296                   0000000180021ccc     c2_test.obj
 0003:00003cd0       $SG18001                   0000000180021cd0     c2_test.obj
 0003:00003cdc       $SG18297                   0000000180021cdc     c2_test.obj
 0003:00003ce0       $SG18002                   0000000180021ce0     c2_test.obj
 0003:00003cec       $SG18318                   0000000180021cec     c2_test.obj
 0003:00003cf0       $SG18003                   0000000180021cf0     c2_test.obj
 0003:00003cfc       $SG18319                   0000000180021cfc     c2_test.obj
 0003:00003d00       $SG18004                   0000000180021d00     c2_test.obj
 0003:00003d0c       $SG18320                   0000000180021d0c     c2_test.obj
 0003:00003d10       $SG18005                   0000000180021d10     c2_test.obj
 0003:00003d1c       $SG18321                   0000000180021d1c     c2_test.obj
 0003:00003d20       $SG18010                   0000000180021d20     c2_test.obj
 0003:00003d28       $SG18011                   0000000180021d28     c2_test.obj
 0003:00003d30       $SG18012                   0000000180021d30     c2_test.obj
 0003:00003d74       $SG18013                   0000000180021d74     c2_test.obj
 0003:00003d7c       $SG18014                   0000000180021d7c     c2_test.obj
 0003:00003d84       $SG18258                   0000000180021d84     c2_test.obj
 0003:00003d8c       $SG18328                   0000000180021d8c     c2_test.obj
 0003:00003d90       $SG18015                   0000000180021d90     c2_test.obj
 0003:00003dac       $SG17308                   0000000180021dac     c2_test.obj
 0003:00003db0       $SG18016                   0000000180021db0     c2_test.obj
 0003:00003dc0       $SG18017                   0000000180021dc0     c2_test.obj
 0003:00003dd0       $SG18019                   0000000180021dd0     c2_test.obj
 0003:00003ddc       $SG18282                   0000000180021ddc     c2_test.obj
 0003:00003de4       $SG17309                   0000000180021de4     c2_test.obj
 0003:00003de8       $SG18020                   0000000180021de8     c2_test.obj
 0003:00003df8       $SG18022                   0000000180021df8     c2_test.obj
 0003:00003e08       $SG18026                   0000000180021e08     c2_test.obj
 0003:00003e14       $SG18037                   0000000180021e14     c2_test.obj
 0003:00003e20       $SG18021                   0000000180021e20     c2_test.obj
 0003:00003e68       $SG18023                   0000000180021e68     c2_test.obj
 0003:00003e74       $SG18335                   0000000180021e74     c2_test.obj
 0003:00003e78       $SG18024                   0000000180021e78     c2_test.obj
 0003:00003e84       $SG17311                   0000000180021e84     c2_test.obj
 0003:00003e88       $SG18025                   0000000180021e88     c2_test.obj
 0003:00003e94       $SG17312                   0000000180021e94     c2_test.obj
 0003:00003e98       $SG18027                   0000000180021e98     c2_test.obj
 0003:00003ea4       $SG17313                   0000000180021ea4     c2_test.obj
 0003:00003ea8       $SG18028                   0000000180021ea8     c2_test.obj
 0003:00003eb4       $SG17314                   0000000180021eb4     c2_test.obj
 0003:00003eb8       $SG18029                   0000000180021eb8     c2_test.obj
 0003:00003ec4       $SG17315                   0000000180021ec4     c2_test.obj
 0003:00003ec8       $SG18034                   0000000180021ec8     c2_test.obj
 0003:00003ed0       $SG18035                   0000000180021ed0     c2_test.obj
 0003:00003ed8       $SG18036                   0000000180021ed8     c2_test.obj
 0003:00003f18       $SG18038                   0000000180021f18     c2_test.obj
 0003:00003f20       $SG18040                   0000000180021f20     c2_test.obj
 0003:00003f30       $SG18041                   0000000180021f30     c2_test.obj
 0003:00003f40       $SG18043                   0000000180021f40     c2_test.obj
 0003:00003f4c       $SG18306                   0000000180021f4c     c2_test.obj
 0003:00003f54       $SG17318                   0000000180021f54     c2_test.obj
 0003:00003f58       $SG18044                   0000000180021f58     c2_test.obj
 0003:00003f64       $SG17306                   0000000180021f64     c2_test.obj
 0003:00003f6c       $SG18363                   0000000180021f6c     c2_test.obj
 0003:00003f70       $SG18045                   0000000180021f70     c2_test.obj
 0003:00003fa8       $SG18046                   0000000180021fa8     c2_test.obj
 0003:00003fb8       $SG18047                   0000000180021fb8     c2_test.obj
 0003:00003fc8       $SG18048                   0000000180021fc8     c2_test.obj
 0003:00003fd8       $SG18049                   0000000180021fd8     c2_test.obj
 0003:00003fe8       $SG18050                   0000000180021fe8     c2_test.obj
 0003:00003ff8       $SG18051                   0000000180021ff8     c2_test.obj
 0003:00004008       $SG18052                   0000000180022008     c2_test.obj
 0003:00004018       $SG18053                   0000000180022018     c2_test.obj
 0003:00004028       $SG18058                   0000000180022028     c2_test.obj
 0003:00004030       $SG18059                   0000000180022030     c2_test.obj
 0003:00004038       $SG18060                   0000000180022038     c2_test.obj
 0003:00004070       $SG18061                   0000000180022070     c2_test.obj
 0003:00004078       $SG18062                   0000000180022078     c2_test.obj
 0003:00004080       $SG18063                   0000000180022080     c2_test.obj
 0003:000040a0       $SG18064                   00000001800220a0     c2_test.obj
 0003:000040b0       $SG18065                   00000001800220b0     c2_test.obj
 0003:000040c0       $SG18067                   00000001800220c0     c2_test.obj
 0003:000040d0       $SG18068                   00000001800220d0     c2_test.obj
 0003:000040e0       $SG18069                   00000001800220e0     c2_test.obj
 0003:00004138       $SG18070                   0000000180022138     c2_test.obj
 0003:00004148       $SG18071                   0000000180022148     c2_test.obj
 0003:00004158       $SG18072                   0000000180022158     c2_test.obj
 0003:00004168       $SG18073                   0000000180022168     c2_test.obj
 0003:00004178       $SG18074                   0000000180022178     c2_test.obj
 0003:00004188       $SG18075                   0000000180022188     c2_test.obj
 0003:00004198       $SG18076                   0000000180022198     c2_test.obj
 0003:000041a8       $SG18077                   00000001800221a8     c2_test.obj
 0003:000041b8       $SG18082                   00000001800221b8     c2_test.obj
 0003:000041c0       $SG18083                   00000001800221c0     c2_test.obj
 0003:000041c8       $SG18084                   00000001800221c8     c2_test.obj
 0003:00004200       $SG18085                   0000000180022200     c2_test.obj
 0003:00004208       $SG18086                   0000000180022208     c2_test.obj
 0003:00004210       $SG18087                   0000000180022210     c2_test.obj
 0003:00004228       $SG18088                   0000000180022228     c2_test.obj
 0003:00004238       $SG18089                   0000000180022238     c2_test.obj
 0003:00004248       $SG18091                   0000000180022248     c2_test.obj
 0003:00004258       $SG18092                   0000000180022258     c2_test.obj
 0003:00004268       $SG18094                   0000000180022268     c2_test.obj
 0003:00004278       $SG18098                   0000000180022278     c2_test.obj
 0003:00004284       $SG18109                   0000000180022284     c2_test.obj
 0003:00004290       $SG18093                   0000000180022290     c2_test.obj
 0003:000042d8       $SG18095                   00000001800222d8     c2_test.obj
 0003:000042e8       $SG18096                   00000001800222e8     c2_test.obj
 0003:000042f8       $SG18097                   00000001800222f8     c2_test.obj
 0003:00004308       $SG18099                   0000000180022308     c2_test.obj
 0003:00004318       $SG18100                   0000000180022318     c2_test.obj
 0003:00004328       $SG18101                   0000000180022328     c2_test.obj
 0003:00004338       $SG18106                   0000000180022338     c2_test.obj
 0003:00004340       $SG18107                   0000000180022340     c2_test.obj
 0003:00004348       $SG18110                   0000000180022348     c2_test.obj
 0003:00004350       $SG18108                   0000000180022350     c2_test.obj
 0003:000043a0       $SG18111                   00000001800223a0     c2_test.obj
 0003:000043b0       $SG18112                   00000001800223b0     c2_test.obj
 0003:000043c0       $SG18113                   00000001800223c0     c2_test.obj
 0003:000043d0       $SG18115                   00000001800223d0     c2_test.obj
 0003:000043e0       $SG18116                   00000001800223e0     c2_test.obj
 0003:000043f0       $SG18117                   00000001800223f0     c2_test.obj
 0003:00004430       $SG18118                   0000000180022430     c2_test.obj
 0003:00004440       $SG18119                   0000000180022440     c2_test.obj
 0003:00004450       $SG18120                   0000000180022450     c2_test.obj
 0003:00004460       $SG18121                   0000000180022460     c2_test.obj
 0003:00004470       $SG18122                   0000000180022470     c2_test.obj
 0003:00004480       $SG18123                   0000000180022480     c2_test.obj
 0003:00004490       $SG18124                   0000000180022490     c2_test.obj
 0003:000044a0       $SG18125                   00000001800224a0     c2_test.obj
 0003:000044b0       $SG18130                   00000001800224b0     c2_test.obj
 0003:000044b8       $SG18131                   00000001800224b8     c2_test.obj
 0003:000044c0       $SG18132                   00000001800224c0     c2_test.obj
 0003:0000451c       $SG18133                   000000018002251c     c2_test.obj
 0003:00004524       $SG18134                   0000000180022524     c2_test.obj
 0003:00004530       $SG18136                   0000000180022530     c2_test.obj
 0003:00004540       $SG18137                   0000000180022540     c2_test.obj
 0003:00004550       $SG18139                   0000000180022550     c2_test.obj
 0003:00004560       $SG18140                   0000000180022560     c2_test.obj
 0003:00004570       $SG18141                   0000000180022570     c2_test.obj
 0003:000045a8       $SG18142                   00000001800225a8     c2_test.obj
 0003:000045b8       $SG18143                   00000001800225b8     c2_test.obj
 0003:000045c8       $SG18144                   00000001800225c8     c2_test.obj
 0003:000045d8       $SG18145                   00000001800225d8     c2_test.obj
 0003:000045e8       $SG18146                   00000001800225e8     c2_test.obj
 0003:000045f8       $SG18147                   00000001800225f8     c2_test.obj
 0003:00004608       $SG18148                   0000000180022608     c2_test.obj
 0003:00004618       $SG18149                   0000000180022618     c2_test.obj
 0003:00004628       $SG18154                   0000000180022628     c2_test.obj
 0003:00004630       $SG18155                   0000000180022630     c2_test.obj
 0003:00004638       $SG18156                   0000000180022638     c2_test.obj
 0003:00004670       $SG18157                   0000000180022670     c2_test.obj
 0003:00004678       $SG18158                   0000000180022678     c2_test.obj
 0003:00004680       $SG18159                   0000000180022680     c2_test.obj
 0003:00004698       $SG18160                   0000000180022698     c2_test.obj
 0003:000046a8       $SG18161                   00000001800226a8     c2_test.obj
 0003:000046b8       $SG18163                   00000001800226b8     c2_test.obj
 0003:000046c8       $SG18164                   00000001800226c8     c2_test.obj
 0003:000046d8       $SG18166                   00000001800226d8     c2_test.obj
 0003:000046e8       $SG18170                   00000001800226e8     c2_test.obj
 0003:000046f4       $SG18181                   00000001800226f4     c2_test.obj
 0003:00004700       $SG18165                   0000000180022700     c2_test.obj
 0003:00004748       $SG18167                   0000000180022748     c2_test.obj
 0003:00004758       $SG18168                   0000000180022758     c2_test.obj
 0003:00004768       $SG18169                   0000000180022768     c2_test.obj
 0003:00004778       $SG18171                   0000000180022778     c2_test.obj
 0003:00004788       $SG18172                   0000000180022788     c2_test.obj
 0003:00004798       $SG18173                   0000000180022798     c2_test.obj
 0003:000047a8       $SG18178                   00000001800227a8     c2_test.obj
 0003:000047b0       $SG18179                   00000001800227b0     c2_test.obj
 0003:000047b8       $SG18182                   00000001800227b8     c2_test.obj
 0003:000047c0       $SG18180                   00000001800227c0     c2_test.obj
 0003:00004808       $SG18183                   0000000180022808     c2_test.obj
 0003:00004820       $SG18184                   0000000180022820     c2_test.obj
 0003:00004830       $SG18185                   0000000180022830     c2_test.obj
 0003:00004840       $SG18187                   0000000180022840     c2_test.obj
 0003:00004850       $SG18188                   0000000180022850     c2_test.obj
 0003:00004860       $SG18189                   0000000180022860     c2_test.obj
 0003:000048a8       $SG18190                   00000001800228a8     c2_test.obj
 0003:000048b8       $SG18191                   00000001800228b8     c2_test.obj
 0003:000048c8       $SG18192                   00000001800228c8     c2_test.obj
 0003:000048d8       $SG18193                   00000001800228d8     c2_test.obj
 0003:000048e8       $SG18194                   00000001800228e8     c2_test.obj
 0003:000048f8       $SG18195                   00000001800228f8     c2_test.obj
 0003:00004908       $SG18196                   0000000180022908     c2_test.obj
 0003:00004918       $SG18197                   0000000180022918     c2_test.obj
 0003:00004928       $SG18202                   0000000180022928     c2_test.obj
 0003:00004930       $SG18203                   0000000180022930     c2_test.obj
 0003:00004938       $SG18205                   0000000180022938     c2_test.obj
 0003:00004940       $SG18204                   0000000180022940     c2_test.obj
 0003:0000499c       $SG18206                   000000018002299c     c2_test.obj
 0003:000049a8       $SG18207                   00000001800229a8     c2_test.obj
 0003:000049b0       $SG18208                   00000001800229b0     c2_test.obj
 0003:000049c0       $SG18209                   00000001800229c0     c2_test.obj
 0003:000049d0       $SG18211                   00000001800229d0     c2_test.obj
 0003:000049e0       $SG18212                   00000001800229e0     c2_test.obj
 0003:000049f0       $SG18213                   00000001800229f0     c2_test.obj
 0003:00004a28       $SG18214                   0000000180022a28     c2_test.obj
 0003:00004a38       $SG18215                   0000000180022a38     c2_test.obj
 0003:00004a48       $SG18216                   0000000180022a48     c2_test.obj
 0003:00004a58       $SG18217                   0000000180022a58     c2_test.obj
 0003:00004a68       $SG18218                   0000000180022a68     c2_test.obj
 0003:00004a78       $SG18219                   0000000180022a78     c2_test.obj
 0003:00004a88       $SG18220                   0000000180022a88     c2_test.obj
 0003:00004a98       $SG18221                   0000000180022a98     c2_test.obj
 0003:00004aa8       $SG18226                   0000000180022aa8     c2_test.obj
 0003:00004ab0       $SG18227                   0000000180022ab0     c2_test.obj
 0003:00004ab8       $SG18228                   0000000180022ab8     c2_test.obj
 0003:00004af0       $SG18229                   0000000180022af0     c2_test.obj
 0003:00004af8       $SG18230                   0000000180022af8     c2_test.obj
 0003:00004b00       $SG18231                   0000000180022b00     c2_test.obj
 0003:00004b20       $SG18232                   0000000180022b20     c2_test.obj
 0003:00004b30       $SG18233                   0000000180022b30     c2_test.obj
 0003:00004b40       $SG18235                   0000000180022b40     c2_test.obj
 0003:00004b50       $SG18236                   0000000180022b50     c2_test.obj
 0003:00004b60       $SG18237                   0000000180022b60     c2_test.obj
 0003:00004bb8       $SG18238                   0000000180022bb8     c2_test.obj
 0003:00004bc8       $SG18239                   0000000180022bc8     c2_test.obj
 0003:00004bd8       $SG18240                   0000000180022bd8     c2_test.obj
 0003:00004be8       $SG18241                   0000000180022be8     c2_test.obj
 0003:00004bf8       $SG18242                   0000000180022bf8     c2_test.obj
 0003:00004c08       $SG18243                   0000000180022c08     c2_test.obj
 0003:00004c18       $SG18244                   0000000180022c18     c2_test.obj
 0003:00004c28       $SG18245                   0000000180022c28     c2_test.obj
 0003:00004c38       $SG18250                   0000000180022c38     c2_test.obj
 0003:00004c40       $SG18251                   0000000180022c40     c2_test.obj
 0003:00004c48       $SG18252                   0000000180022c48     c2_test.obj
 0003:00004c80       $SG18253                   0000000180022c80     c2_test.obj
 0003:00004c88       $SG18254                   0000000180022c88     c2_test.obj
 0003:00004c90       $SG18255                   0000000180022c90     c2_test.obj
 0003:00004ca8       $SG18256                   0000000180022ca8     c2_test.obj
 0003:00004cb8       $SG18257                   0000000180022cb8     c2_test.obj
 0003:00004cc8       $SG18259                   0000000180022cc8     c2_test.obj
 0003:00004cd8       $SG18260                   0000000180022cd8     c2_test.obj
 0003:00004ce8       $SG18262                   0000000180022ce8     c2_test.obj
 0003:00004cf8       $SG18266                   0000000180022cf8     c2_test.obj
 0003:00004d04       $SG18277                   0000000180022d04     c2_test.obj
 0003:00004d10       $SG18261                   0000000180022d10     c2_test.obj
 0003:00004d58       $SG18263                   0000000180022d58     c2_test.obj
 0003:00004d68       $SG18264                   0000000180022d68     c2_test.obj
 0003:00004d78       $SG18265                   0000000180022d78     c2_test.obj
 0003:00004d88       $SG18267                   0000000180022d88     c2_test.obj
 0003:00004d98       $SG18268                   0000000180022d98     c2_test.obj
 0003:00004da8       $SG18269                   0000000180022da8     c2_test.obj
 0003:00004db8       $SG18274                   0000000180022db8     c2_test.obj
 0003:00004dc0       $SG18275                   0000000180022dc0     c2_test.obj
 0003:00004dc8       $SG18276                   0000000180022dc8     c2_test.obj
 0003:00004e00       $SG18278                   0000000180022e00     c2_test.obj
 0003:00004e08       $SG18279                   0000000180022e08     c2_test.obj
 0003:00004e10       $SG18280                   0000000180022e10     c2_test.obj
 0003:00004e20       $SG18281                   0000000180022e20     c2_test.obj
 0003:00004e30       $SG18283                   0000000180022e30     c2_test.obj
 0003:00004e40       $SG18284                   0000000180022e40     c2_test.obj
 0003:00004e50       $SG18285                   0000000180022e50     c2_test.obj
 0003:00004e88       $SG18286                   0000000180022e88     c2_test.obj
 0003:00004e98       $SG18287                   0000000180022e98     c2_test.obj
 0003:00004ea8       $SG18288                   0000000180022ea8     c2_test.obj
 0003:00004eb8       $SG18289                   0000000180022eb8     c2_test.obj
 0003:00004ec8       $SG18290                   0000000180022ec8     c2_test.obj
 0003:00004ed8       $SG18291                   0000000180022ed8     c2_test.obj
 0003:00004ee8       $SG18292                   0000000180022ee8     c2_test.obj
 0003:00004ef8       $SG18293                   0000000180022ef8     c2_test.obj
 0003:00004f08       $SG18298                   0000000180022f08     c2_test.obj
 0003:00004f10       $SG18299                   0000000180022f10     c2_test.obj
 0003:00004f18       $SG18300                   0000000180022f18     c2_test.obj
 0003:00004f50       $SG18301                   0000000180022f50     c2_test.obj
 0003:00004f58       $SG18302                   0000000180022f58     c2_test.obj
 0003:00004f60       $SG18303                   0000000180022f60     c2_test.obj
 0003:00004f78       $SG18304                   0000000180022f78     c2_test.obj
 0003:00004f88       $SG18305                   0000000180022f88     c2_test.obj
 0003:00004f98       $SG18307                   0000000180022f98     c2_test.obj
 0003:00004fa8       $SG18308                   0000000180022fa8     c2_test.obj
 0003:00004fb8       $SG18309                   0000000180022fb8     c2_test.obj
 0003:00004ff8       $SG18310                   0000000180022ff8     c2_test.obj
 0003:00005008       $SG18311                   0000000180023008     c2_test.obj
 0003:00005018       $SG18312                   0000000180023018     c2_test.obj
 0003:00005028       $SG18313                   0000000180023028     c2_test.obj
 0003:00005038       $SG18314                   0000000180023038     c2_test.obj
 0003:00005048       $SG18315                   0000000180023048     c2_test.obj
 0003:00005058       $SG18316                   0000000180023058     c2_test.obj
 0003:00005068       $SG18317                   0000000180023068     c2_test.obj
 0003:00005078       c2_debug_family_names      0000000180023078     c2_test.obj
 0003:00005098       $SG17307                   0000000180023098     c2_test.obj
 0003:000050a0       c2_b_debug_family_names    00000001800230a0     c2_test.obj
 0003:000050e8       $SG17316                   00000001800230e8     c2_test.obj
 0003:000050f0       $SG17317                   00000001800230f0     c2_test.obj
 0003:000050f8       $SG17319                   00000001800230f8     c2_test.obj
 0003:00005110       $SG15397                   0000000180023110     test_sfun_registry.obj
 0003:00005134       $SG16706                   0000000180023134     test_sfun_registry.obj
 0003:00005138       _sfcnName                  0000000180023138     test_sfun_registry.obj
 0003:00005158       $SG15544                   0000000180023158     test_sfun_registry.obj
 0003:00005160       $SG15414                   0000000180023160     test_sfun_registry.obj
 0003:000051d8       $SG15545                   00000001800231d8     test_sfun_registry.obj
 0003:000051e0       $SG15566                   00000001800231e0     test_sfun_registry.obj
 0003:000051f0       $SG15590                   00000001800231f0     test_sfun_registry.obj
 0003:000051fc       $SG15592                   00000001800231fc     test_sfun_registry.obj
 0003:00005204       $SG16779                   0000000180023204     test_sfun_registry.obj
 0003:00005208       $SG15595                   0000000180023208     test_sfun_registry.obj
 0003:00005214       $SG16725                   0000000180023214     test_sfun_registry.obj
 0003:0000521c       $SG15263                   000000018002321c     test_sfun_registry.obj
 0003:00005230       $SG16703                   0000000180023230     test_sfun_registry.obj
 0003:00005270       $SG16726                   0000000180023270     test_sfun_registry.obj
 0003:00005278       $SG16727                   0000000180023278     test_sfun_registry.obj
 0003:00005280       $SG16728                   0000000180023280     test_sfun_registry.obj
 0003:000052e8       $SG16731                   00000001800232e8     test_sfun_registry.obj
 0003:00005328       $SG16733                   0000000180023328     test_sfun_registry.obj
 0003:00005330       $SG16736                   0000000180023330     test_sfun_registry.obj
 0003:00005338       $SG16739                   0000000180023338     test_sfun_registry.obj
 0003:00005340       $SG16741                   0000000180023340     test_sfun_registry.obj
 0003:00005370       $SG16743                   0000000180023370     test_sfun_registry.obj
 0003:00005380       $SG16771                   0000000180023380     test_sfun_registry.obj
 0003:0000538c       $SG16773                   000000018002338c     test_sfun_registry.obj
 0003:00005394       $SG16775                   0000000180023394     test_sfun_registry.obj
 0003:000053a0       $SG16777                   00000001800233a0     test_sfun_registry.obj
 0003:000053b0       $SG16785                   00000001800233b0     test_sfun_registry.obj
 0003:00005458       $SG16804                   0000000180023458     test_sfun_registry.obj
 0003:00005490       $SG16807                   0000000180023490     test_sfun_registry.obj
 0003:000054c0       $SG16811                   00000001800234c0     test_sfun_registry.obj
 0003:00005508       $SG16840                   0000000180023508     test_sfun_registry.obj
 0003:00005510       $SG16817                   0000000180023510     test_sfun_registry.obj
 0003:00005558       $SG16820                   0000000180023558     test_sfun_registry.obj
 0003:00005578       $SG16842                   0000000180023578     test_sfun_registry.obj
 0003:00005590       $SG16844                   0000000180023590     test_sfun_registry.obj
 0003:00005630       $SG15843                   0000000180023630     test_sfun_registry.obj
 0003:000056a0       $SG15853                   00000001800236a0     test_sfun_registry.obj
 0003:00005710       $SG14845                   0000000180023710     test_sfun_registry.obj
 0003:00005728       $SG14850                   0000000180023728     test_sfun_registry.obj
 0003:00005730       $SG16917                   0000000180023730     test_sfun_registry.obj
 0003:00005760       $SG16925                   0000000180023760     test_sfun_registry.obj
 0003:00005788       $SG14879                   0000000180023788     test_sfun_registry.obj
 0003:000057a4       $SG14884                   00000001800237a4     test_sfun_registry.obj
 0003:000057b0       $SG16933                   00000001800237b0     test_sfun_registry.obj
 0003:000057e0       $SG16942                   00000001800237e0     test_sfun_registry.obj
 0003:00005810       $SG16951                   0000000180023810     test_sfun_registry.obj
 0003:00005848       $SG16956                   0000000180023848     test_sfun_registry.obj
 0003:00005880       $SG16964                   0000000180023880     test_sfun_registry.obj
 0003:000058b0       $SG14917                   00000001800238b0     test_sfun_registry.obj
 0003:000058cc       $SG14922                   00000001800238cc     test_sfun_registry.obj
 0003:000058d8       $SG16972                   00000001800238d8     test_sfun_registry.obj
 0003:00005908       $SG16979                   0000000180023908     test_sfun_registry.obj
 0003:00005938       $SG16986                   0000000180023938     test_sfun_registry.obj
 0003:00005968       $SG16991                   0000000180023968     test_sfun_registry.obj
 0003:00005998       $SG16999                   0000000180023998     test_sfun_registry.obj
 0003:000059c8       $SG14955                   00000001800239c8     test_sfun_registry.obj
 0003:000059e0       $SG17007                   00000001800239e0     test_sfun_registry.obj
 0003:00005a14       $SG14960                   0000000180023a14     test_sfun_registry.obj
 0003:00005a20       $SG17012                   0000000180023a20     test_sfun_registry.obj
 0003:00005a58       $SG17020                   0000000180023a58     test_sfun_registry.obj
 0003:00005a88       $SG17026                   0000000180023a88     test_sfun_registry.obj
 0003:00005ab0       $SG17031                   0000000180023ab0     test_sfun_registry.obj
 0003:00005ad0       $SG17036                   0000000180023ad0     test_sfun_registry.obj
 0003:00005b00       $SG17041                   0000000180023b00     test_sfun_registry.obj
 0003:00005b20       $SG14993                   0000000180023b20     test_sfun_registry.obj
 0003:00005b40       $SG17046                   0000000180023b40     test_sfun_registry.obj
 0003:00005b60       $SG14998                   0000000180023b60     test_sfun_registry.obj
 0003:00005b68       $SG17051                   0000000180023b68     test_sfun_registry.obj
 0003:00005b88       $SG17056                   0000000180023b88     test_sfun_registry.obj
 0003:00005bb0       $SG17061                   0000000180023bb0     test_sfun_registry.obj
 0003:00005bd8       $SG17066                   0000000180023bd8     test_sfun_registry.obj
 0003:00005c00       $SG17075                   0000000180023c00     test_sfun_registry.obj
 0003:00005c28       $SG17079                   0000000180023c28     test_sfun_registry.obj
 0003:00005c50       $SG15031                   0000000180023c50     test_sfun_registry.obj
 0003:00005c70       $SG15036                   0000000180023c70     test_sfun_registry.obj
 0003:00005c78       $SG16061                   0000000180023c78     test_sfun_registry.obj
 0003:00005cb8       $SG17087                   0000000180023cb8     test_sfun_registry.obj
 0003:00005ce0       $SG16066                   0000000180023ce0     test_sfun_registry.obj
 0003:00005d10       $SG17094                   0000000180023d10     test_sfun_registry.obj
 0003:00005d38       $SG16085                   0000000180023d38     test_sfun_registry.obj
 0003:00005d70       $SG16071                   0000000180023d70     test_sfun_registry.obj
 0003:00005db8       $SG15068                   0000000180023db8     test_sfun_registry.obj
 0003:00005dd0       $SG15073                   0000000180023dd0     test_sfun_registry.obj
 0003:00005dd8       $SG15091                   0000000180023dd8     test_sfun_registry.obj
 0003:00005de8       $SG15136                   0000000180023de8     test_sfun_registry.obj
 0003:00005e00       $SG15167                   0000000180023e00     test_sfun_registry.obj
 0003:00005e08       $SG15264                   0000000180023e08     test_sfun_registry.obj
 0003:00005e1c       $SG15269                   0000000180023e1c     test_sfun_registry.obj
 0003:00005e28       $SG15270                   0000000180023e28     test_sfun_registry.obj
 0003:00005e48       $SG16357                   0000000180023e48     test_sfun_registry.obj
 0003:00005e88       $SG16365                   0000000180023e88     test_sfun_registry.obj
 0003:00005ec0       $SG16379                   0000000180023ec0     test_sfun_registry.obj
 0003:00005f00       sRtwOptimizationInfoStruct 0000000180023f00     test_sfun.obj
 0003:00005f08       $SG18762                   0000000180023f08     c1_test.obj
 0003:00005f09       $SG18779                   0000000180023f09     c1_test.obj
 0003:00005f0a       $SG17978                   0000000180023f0a     c1_test.obj
 0003:00005f0b       $SG18050                   0000000180023f0b     c1_test.obj
 0003:00005f10       _sfTime_                   0000000180023f10     c1_test.obj
 0003:00005f18       $SG18528                   0000000180023f18     c2_test.obj
 0003:00005f19       $SG18545                   0000000180023f19     c2_test.obj
 0003:00005f1a       $SG17868                   0000000180023f1a     c2_test.obj
 0003:00005f20       _sfTime_                   0000000180023f20     c2_test.obj
 0003:00005f30       $SG16720                   0000000180023f30     test_sfun_registry.obj
 0003:00005f40       sfGlobalMdlStartCallCounts 0000000180023f40     test_sfun_registry.obj
 0003:00005f50       ?errmsg@?N@??ssWriteRTWWorkVect@@9@9 0000000180023f50     test_sfun_registry.obj
 0003:00006020       GS_ExceptionRecord         0000000180024020     MSVCRT:gs_report.obj
 0003:000060c0       GS_ContextRecord           00000001800240c0     MSVCRT:gs_report.obj
 0003:00006590       DebuggerWasPresent         0000000180024590     MSVCRT:gs_report.obj
 0003:00006594       __proc_attached            0000000180024594     MSVCRT:crtdll.obj
 0004:00000000       $pdata$load_test_optimization_info 0000000180025000     test_sfun.obj
 0004:0000000c       $pdata$unload_test_optimization_info 000000018002500c     test_sfun.obj
 0004:00000018       $pdata$sf_test_method_dispatcher 0000000180025018     test_sfun.obj
 0004:00000024       $pdata$sf_test_uses_exported_functions 0000000180025024     test_sfun.obj
 0004:00000030       $pdata$sf_test_process_check_sum_call 0000000180025030     test_sfun.obj
 0004:0000003c       $pdata$sf_test_autoinheritance_info 000000018002503c     test_sfun.obj
 0004:00000048       $pdata$sf_test_get_eml_resolved_functions_info 0000000180025048     test_sfun.obj
 0004:00000054       $pdata$sf_test_third_party_uses_info 0000000180025054     test_sfun.obj
 0004:00000060       $pdata$sf_test_jit_fallback_info 0000000180025060     test_sfun.obj
 0004:0000006c       $pdata$sf_test_updateBuildInfo_args_info 000000018002506c     test_sfun.obj
 0004:00000078       $pdata$sf_test_get_post_codegen_info 0000000180025078     test_sfun.obj
 0004:00000084       $pdata$test_debug_initialize 0000000180025084     test_sfun.obj
 0004:00000090       $pdata$sf_c1_test_get_eml_resolved_functions_info 0000000180025090     c1_test.obj
 0004:0000009c       $pdata$sf_c1_test_get_check_sum 000000018002509c     c1_test.obj
 0004:000000a8       $pdata$c1_test_method_dispatcher 00000001800250a8     c1_test.obj
 0004:000000b4       $pdata$initialize_c1_test  00000001800250b4     c1_test.obj
 0004:000000c0       $pdata$enable_c1_test      00000001800250c0     c1_test.obj
 0004:000000cc       $pdata$disable_c1_test     00000001800250cc     c1_test.obj
 0004:000000d8       $pdata$get_sim_state_c1_test 00000001800250d8     c1_test.obj
 0004:000000e4       $pdata$set_sim_state_c1_test 00000001800250e4     c1_test.obj
 0004:000000f0       $pdata$sf_gateway_c1_test  00000001800250f0     c1_test.obj
 0004:000000fc       $pdata$c1_chartstep_c1_test 00000001800250fc     c1_test.obj
 0004:00000108       $pdata$init_script_number_translation 0000000180025108     c1_test.obj
 0004:00000114       $pdata$c1_sf_marshallOut   0000000180025114     c1_test.obj
 0004:00000120       $pdata$c1_emlrt_marshallIn 0000000180025120     c1_test.obj
 0004:0000012c       $pdata$c1_b_emlrt_marshallIn 000000018002512c     c1_test.obj
 0004:00000138       $pdata$c1_sf_marshallIn    0000000180025138     c1_test.obj
 0004:00000144       $pdata$c1_b_sf_marshallOut 0000000180025144     c1_test.obj
 0004:00000150       $pdata$c1_c_sf_marshallOut 0000000180025150     c1_test.obj
 0004:0000015c       $pdata$c1_c_emlrt_marshallIn 000000018002515c     c1_test.obj
 0004:00000168       $pdata$c1_b_sf_marshallIn  0000000180025168     c1_test.obj
 0004:00000174       $pdata$c1_info_helper      0000000180025174     c1_test.obj
 0004:00000180       $pdata$c1_emlrt_marshallOut 0000000180025180     c1_test.obj
 0004:0000018c       $pdata$c1_b_emlrt_marshallOut 000000018002518c     c1_test.obj
 0004:00000198       $pdata$c1_power            0000000180025198     c1_test.obj
 0004:000001a4       $pdata$c1_rdivide          00000001800251a4     c1_test.obj
 0004:000001b0       $pdata$c1_e_emlrt_marshallIn 00000001800251b0     c1_test.obj
 0004:000001bc       $pdata$c1_f_emlrt_marshallIn 00000001800251bc     c1_test.obj
 0004:000001c8       $pdata$init_simulink_io_address 00000001800251c8     c1_test.obj
 0004:000001d4       $pdata$sf_c1_test_get_post_codegen_info 00000001800251d4     c1_test.obj
 0004:000001e0       $pdata$sf_c1_test_get_autoinheritance_info 00000001800251e0     c1_test.obj
 0004:000001ec       $pdata$sf_c1_test_third_party_uses_info 00000001800251ec     c1_test.obj
 0004:000001f8       $pdata$sf_c1_test_jit_fallback_info 00000001800251f8     c1_test.obj
 0004:00000204       $pdata$sf_c1_test_updateBuildInfo_args_info 0000000180025204     c1_test.obj
 0004:00000210       $pdata$sf_get_sim_state_info_c1_test 0000000180025210     c1_test.obj
 0004:0000021c       $pdata$chart_debug_initialization 000000018002521c     c1_test.obj
 0004:00000228       $pdata$sf_opaque_initialize_c1_test 0000000180025228     c1_test.obj
 0004:00000234       $pdata$sf_opaque_enable_c1_test 0000000180025234     c1_test.obj
 0004:00000240       $pdata$sf_opaque_disable_c1_test 0000000180025240     c1_test.obj
 0004:0000024c       $pdata$sf_opaque_gateway_c1_test 000000018002524c     c1_test.obj
 0004:00000258       $pdata$sf_opaque_get_sim_state_c1_test 0000000180025258     c1_test.obj
 0004:00000264       $pdata$sf_opaque_set_sim_state_c1_test 0000000180025264     c1_test.obj
 0004:00000270       $pdata$sf_opaque_terminate_c1_test 0000000180025270     c1_test.obj
 0004:0000027c       $pdata$sf_opaque_init_subchart_simstructs 000000018002527c     c1_test.obj
 0004:00000288       $pdata$mdlProcessParameters_c1_test 0000000180025288     c1_test.obj
 0004:00000294       $pdata$mdlSetWorkWidths_c1_test 0000000180025294     c1_test.obj
 0004:000002a0       $pdata$mdlRTW_c1_test      00000001800252a0     c1_test.obj
 0004:000002ac       $pdata$mdlStart_c1_test    00000001800252ac     c1_test.obj
 0004:000002b8       $pdata$sf_c2_test_get_eml_resolved_functions_info 00000001800252b8     c2_test.obj
 0004:000002c4       $pdata$sf_c2_test_get_check_sum 00000001800252c4     c2_test.obj
 0004:000002d0       $pdata$c2_test_method_dispatcher 00000001800252d0     c2_test.obj
 0004:000002dc       $pdata$initialize_c2_test  00000001800252dc     c2_test.obj
 0004:000002e8       $pdata$enable_c2_test      00000001800252e8     c2_test.obj
 0004:000002f4       $pdata$disable_c2_test     00000001800252f4     c2_test.obj
 0004:00000300       $pdata$get_sim_state_c2_test 0000000180025300     c2_test.obj
 0004:0000030c       $pdata$set_sim_state_c2_test 000000018002530c     c2_test.obj
 0004:00000318       $pdata$sf_gateway_c2_test  0000000180025318     c2_test.obj
 0004:00000324       $pdata$init_script_number_translation 0000000180025324     c2_test.obj
 0004:00000330       $pdata$c2_sf_marshallOut   0000000180025330     c2_test.obj
 0004:0000033c       $pdata$c2_emlrt_marshallIn 000000018002533c     c2_test.obj
 0004:00000348       $pdata$c2_b_emlrt_marshallIn 0000000180025348     c2_test.obj
 0004:00000354       $pdata$c2_sf_marshallIn    0000000180025354     c2_test.obj
 0004:00000360       $pdata$c2_b_sf_marshallOut 0000000180025360     c2_test.obj
 0004:0000036c       $pdata$c2_c_emlrt_marshallIn 000000018002536c     c2_test.obj
 0004:00000378       $pdata$c2_b_sf_marshallIn  0000000180025378     c2_test.obj
 0004:00000384       $pdata$c2_c_sf_marshallOut 0000000180025384     c2_test.obj
 0004:00000390       $pdata$c2_d_emlrt_marshallIn 0000000180025390     c2_test.obj
 0004:0000039c       $pdata$c2_c_sf_marshallIn  000000018002539c     c2_test.obj
 0004:000003a8       $pdata$c2_info_helper      00000001800253a8     c2_test.obj
 0004:000003b4       $pdata$c2_emlrt_marshallOut 00000001800253b4     c2_test.obj
 0004:000003c0       $pdata$c2_b_emlrt_marshallOut 00000001800253c0     c2_test.obj
 0004:000003cc       $pdata$c2_power            00000001800253cc     c2_test.obj
 0004:000003d8       $pdata$c2_f_emlrt_marshallIn 00000001800253d8     c2_test.obj
 0004:000003e4       $pdata$c2_g_emlrt_marshallIn 00000001800253e4     c2_test.obj
 0004:000003f0       $pdata$init_simulink_io_address 00000001800253f0     c2_test.obj
 0004:000003fc       $pdata$sf_c2_test_get_post_codegen_info 00000001800253fc     c2_test.obj
 0004:00000408       $pdata$sf_c2_test_get_autoinheritance_info 0000000180025408     c2_test.obj
 0004:00000414       $pdata$sf_c2_test_third_party_uses_info 0000000180025414     c2_test.obj
 0004:00000420       $pdata$sf_c2_test_jit_fallback_info 0000000180025420     c2_test.obj
 0004:0000042c       $pdata$sf_c2_test_updateBuildInfo_args_info 000000018002542c     c2_test.obj
 0004:00000438       $pdata$sf_get_sim_state_info_c2_test 0000000180025438     c2_test.obj
 0004:00000444       $pdata$chart_debug_initialization 0000000180025444     c2_test.obj
 0004:00000450       $pdata$sf_opaque_initialize_c2_test 0000000180025450     c2_test.obj
 0004:0000045c       $pdata$sf_opaque_enable_c2_test 000000018002545c     c2_test.obj
 0004:00000468       $pdata$sf_opaque_disable_c2_test 0000000180025468     c2_test.obj
 0004:00000474       $pdata$sf_opaque_gateway_c2_test 0000000180025474     c2_test.obj
 0004:00000480       $pdata$sf_opaque_get_sim_state_c2_test 0000000180025480     c2_test.obj
 0004:0000048c       $pdata$sf_opaque_set_sim_state_c2_test 000000018002548c     c2_test.obj
 0004:00000498       $pdata$sf_opaque_terminate_c2_test 0000000180025498     c2_test.obj
 0004:000004a4       $pdata$sf_opaque_init_subchart_simstructs 00000001800254a4     c2_test.obj
 0004:000004b0       $pdata$mdlProcessParameters_c2_test 00000001800254b0     c2_test.obj
 0004:000004bc       $pdata$mdlSetWorkWidths_c2_test 00000001800254bc     c2_test.obj
 0004:000004c8       $pdata$mdlRTW_c2_test      00000001800254c8     c2_test.obj
 0004:000004d4       $pdata$mdlStart_c2_test    00000001800254d4     c2_test.obj
 0004:000004e0       $pdata$mexFunction         00000001800254e0     test_sfun_registry.obj
 0004:000004ec       $pdata$_ssSetInputPortDirectFeedThroughFcn 00000001800254ec     test_sfun_registry.obj
 0004:000004f8       $pdata$_ssGetInputPortSignalPtrsFcn 00000001800254f8     test_sfun_registry.obj
 0004:00000504       $pdata$_ssGetInputPortSignalFcn 0000000180025504     test_sfun_registry.obj
 0004:00000510       $pdata$_ssSetInputPortReusableFcn 0000000180025510     test_sfun_registry.obj
 0004:0000051c       $pdata$_ssSetOutputPortReusableFcn 000000018002551c     test_sfun_registry.obj
 0004:00000528       $pdata$ssGetIsZeroCrossControlDisabled 0000000180025528     test_sfun_registry.obj
 0004:00000534       $pdata$ssSetIsInputPortUsedForContZcSignal 0000000180025534     test_sfun_registry.obj
 0004:00000540       $pdata$ssSetZcSignalIsZcElementDisc 0000000180025540     test_sfun_registry.obj
 0004:0000054c       $pdata$ssSetZcSignalName   000000018002554c     test_sfun_registry.obj
 0004:00000558       $pdata$ssSetZcSignalWidth  0000000180025558     test_sfun_registry.obj
 0004:00000564       $pdata$ssSetZcSignalZcEventType 0000000180025564     test_sfun_registry.obj
 0004:00000570       $pdata$ssSetZcSignalType   0000000180025570     test_sfun_registry.obj
 0004:0000057c       $pdata$ssSetZcSignalZcTol  000000018002557c     test_sfun_registry.obj
 0004:00000588       $pdata$ssSetZcSignalNeedsEventNotification 0000000180025588     test_sfun_registry.obj
 0004:00000594       $pdata$ssCreateAndAddZcSignalInfo 0000000180025594     test_sfun_registry.obj
 0004:000005a0       $pdata$ssCloneAndAddZcSignalInfo 00000001800255a0     test_sfun_registry.obj
 0004:000005ac       $pdata$ssGetNumZcSignals   00000001800255ac     test_sfun_registry.obj
 0004:000005b8       $pdata$ssGetZcSignalVector 00000001800255b8     test_sfun_registry.obj
 0004:000005c4       $pdata$ssGetZcSignalName   00000001800255c4     test_sfun_registry.obj
 0004:000005d0       $pdata$ssGetZcSignalWidth  00000001800255d0     test_sfun_registry.obj
 0004:000005dc       $pdata$ssGetZcSignalZcEventType 00000001800255dc     test_sfun_registry.obj
 0004:000005e8       $pdata$ssGetZcSignalZcEvents 00000001800255e8     test_sfun_registry.obj
 0004:000005f4       $pdata$ssGetZcSignalType   00000001800255f4     test_sfun_registry.obj
 0004:00000600       $pdata$ssGetZcSignalZcTol  0000000180025600     test_sfun_registry.obj
 0004:0000060c       $pdata$ssGetZcSignalNeedsEventNotification 000000018002560c     test_sfun_registry.obj
 0004:00000618       $pdata$ssGetZcSignalIsZcElementDisc 0000000180025618     test_sfun_registry.obj
 0004:00000624       $pdata$ssGetIsInputPortElementContinuous 0000000180025624     test_sfun_registry.obj
 0004:00000630       $pdata$ssGetDTypeIdFromMxArray 0000000180025630     test_sfun_registry.obj
 0004:0000063c       $pdata$ssWriteRTWStr       000000018002563c     test_sfun_registry.obj
 0004:00000648       $pdata$ssWriteRTWNameValuePair 0000000180025648     test_sfun_registry.obj
 0004:00000654       $pdata$ssWriteRTWParamSettings 0000000180025654     test_sfun_registry.obj
 0004:00000660       $pdata$ssWriteRTWParameters 0000000180025660     test_sfun_registry.obj
 0004:0000066c       $pdata$ssWriteRTWWorkVect  000000018002566c     test_sfun_registry.obj
 0004:00000678       $pdata$ssWriteRTWMxVectParam 0000000180025678     test_sfun_registry.obj
 0004:00000684       $pdata$ssWriteRTWMx2dMatParam 0000000180025684     test_sfun_registry.obj
 0004:00000690       $pdata$_ssSetInputPortMatrixDimensions 0000000180025690     test_sfun_registry.obj
 0004:0000069c       $pdata$_ssSetOutputPortMatrixDimensions 000000018002569c     test_sfun_registry.obj
 0004:000006a8       $pdata$_ssSetInputPortVectorDimension 00000001800256a8     test_sfun_registry.obj
 0004:000006b4       $pdata$_ssSetOutputPortVectorDimension 00000001800256b4     test_sfun_registry.obj
 0004:000006c0       $pdata$ssIsRunTimeParamTunable 00000001800256c0     test_sfun_registry.obj
 0004:000006cc       $pdata$ssGetSFuncBlockHandle 00000001800256cc     test_sfun_registry.obj
 0004:000006d8       $pdata$_ssGetCurrentInputPortWidth 00000001800256d8     test_sfun_registry.obj
 0004:000006e4       $pdata$_ssGetCurrentOutputPortWidth 00000001800256e4     test_sfun_registry.obj
 0004:000006f0       $pdata$_ssGetCallSystemNumFcnCallDestinations 00000001800256f0     test_sfun_registry.obj
 0004:000006fc       $pdata$ssWarning           00000001800256fc     test_sfun_registry.obj
 0004:00000708       $pdata$_ssGetAbsTol        0000000180025708     test_sfun_registry.obj
 0004:00000714       $pdata$sf_process_check_sum_call 0000000180025714     test_sfun_registry.obj
 0004:00000720       $pdata$sf_process_machine_uses_exported_functions_call 0000000180025720     test_sfun_registry.obj
 0004:0000072c       $pdata$sf_process_autoinheritance_call 000000018002572c     test_sfun_registry.obj
 0004:00000738       $pdata$sf_process_get_third_party_uses_info_call 0000000180025738     test_sfun_registry.obj
 0004:00000744       $pdata$sf_process_get_jit_fallback_info_call 0000000180025744     test_sfun_registry.obj
 0004:00000750       $pdata$sf_process_get_updateBuildInfo_args_info_call 0000000180025750     test_sfun_registry.obj
 0004:0000075c       $pdata$sf_process_get_eml_resolved_functions_info_call 000000018002575c     test_sfun_registry.obj
 0004:00000768       $pdata$sf_process_get_post_codegen_info 0000000180025768     test_sfun_registry.obj
 0004:00000774       $pdata$sf_mex_unlock_call  0000000180025774     test_sfun_registry.obj
 0004:00000780       $pdata$sf_debug_api_wrapper 0000000180025780     test_sfun_registry.obj
 0004:0000078c       $pdata$ProcessMexSfunctionCmdLineCall 000000018002578c     test_sfun_registry.obj
 0004:00000798       $pdata$sf_machine_global_initializer_called 0000000180025798     test_sfun_registry.obj
 0004:000007a4       $pdata$sf_machine_global_method_dispatcher 00000001800257a4     test_sfun_registry.obj
 0004:000007b0       $pdata$sf_machine_global_terminator 00000001800257b0     test_sfun_registry.obj
 0004:000007bc       $pdata$sf_register_machine_exported_symbols 00000001800257bc     test_sfun_registry.obj
 0004:000007c8       $pdata$sf_machine_global_initializer 00000001800257c8     test_sfun_registry.obj
 0004:000007d4       $pdata$getChartInfoFromSimStruct 00000001800257d4     test_sfun_registry.obj
 0004:000007e0       $pdata$mdlGetSimState      00000001800257e0     test_sfun_registry.obj
 0004:000007ec       $pdata$mdlSetSimState      00000001800257ec     test_sfun_registry.obj
 0004:000007f8       $pdata$mdlSetWorkWidths    00000001800257f8     test_sfun_registry.obj
 0004:00000804       $pdata$mdlProcessParameters 0000000180025804     test_sfun_registry.obj
 0004:00000810       $pdata$mdl_start_processing 0000000180025810     test_sfun_registry.obj
 0004:0000081c       $pdata$mdl_terminate_processing 000000018002581c     test_sfun_registry.obj
 0004:00000828       $pdata$mdlStart            0000000180025828     test_sfun_registry.obj
 0004:00000834       $pdata$mdlTerminate        0000000180025834     test_sfun_registry.obj
 0004:00000840       $pdata$mdlInitializeSizes  0000000180025840     test_sfun_registry.obj
 0004:0000084c       $pdata$mdlInitializeSampleTimes 000000018002584c     test_sfun_registry.obj
 0004:00000858       $pdata$mdl_outputs_continuous_legacy 0000000180025858     test_sfun_registry.obj
 0004:00000864       $pdata$mdl_outputs_processing 0000000180025864     test_sfun_registry.obj
 0004:00000870       $pdata$mdl_zeroCrossings_processing 0000000180025870     test_sfun_registry.obj
 0004:0000087c       $pdata$mdlZeroCrossings    000000018002587c     test_sfun_registry.obj
 0004:00000888       $pdata$mdl_derivatives_processing 0000000180025888     test_sfun_registry.obj
 0004:00000894       $pdata$mdlDerivatives      0000000180025894     test_sfun_registry.obj
 0004:000008a0       $pdata$mdl_initialize_conditions_processing 00000001800258a0     test_sfun_registry.obj
 0004:000008ac       $pdata$mdlInitializeConditions 00000001800258ac     test_sfun_registry.obj
 0004:000008b8       $pdata$mdl_ext_mode_exec_processing 00000001800258b8     test_sfun_registry.obj
 0004:000008c4       $pdata$mdlExtModeExec      00000001800258c4     test_sfun_registry.obj
 0004:000008d0       $pdata$mdlRTW              00000001800258d0     test_sfun_registry.obj
 0004:000008dc       $pdata$mdl_enable_processing 00000001800258dc     test_sfun_registry.obj
 0004:000008e8       $pdata$mdlEnable           00000001800258e8     test_sfun_registry.obj
 0004:000008f4       $pdata$mdl_disable_processing 00000001800258f4     test_sfun_registry.obj
 0004:00000900       $pdata$mdlDisable          0000000180025900     test_sfun_registry.obj
 0004:0000090c       $pdata$mdlOutputs          000000018002590c     test_sfun_registry.obj
 0004:00000918       $pdata$ProcessMexSfunctionEveryCall 0000000180025918     test_sfun_registry.obj
 0004:00000924       $pdata$_RegNumInputPortsCB 0000000180025924     test_sfun_registry.obj
 0004:00000930       $pdata$_RegNumOutputPortsCB 0000000180025930     test_sfun_registry.obj
 0004:0000093c       $pdata$_CreateSimStruct    000000018002593c     test_sfun_registry.obj
 0004:00000948       $pdata$_ssFatalError       0000000180025948     test_sfun_registry.obj
 0004:00000954       $pdata$_ProcessMexSfunctionCmdLineCall 0000000180025954     test_sfun_registry.obj
 0004:00000960       $pdata$__raise_securityfailure 0000000180025960     MSVCRT:gs_report.obj
 0004:0000096c       $pdata$__report_gsfailure  000000018002596c     MSVCRT:gs_report.obj
 0004:00000978       $pdata$__report_rangecheckfailure 0000000180025978     MSVCRT:gs_report.obj
 0004:00000984       $pdata$__report_securityfailure 0000000180025984     MSVCRT:gs_report.obj
 0004:00000990       $pdata$__report_securityfailureEx 0000000180025990     MSVCRT:gs_report.obj
 0004:0000099c       $pdata$__GSHandlerCheck    000000018002599c     MSVCRT:gshandler.obj
 0004:000009a8       $pdata$__GSHandlerCheckCommon 00000001800259a8     MSVCRT:gshandler.obj
 0004:000009c0       $pdata$pre_c_init          00000001800259c0     MSVCRT:crtdll.obj
 0004:000009cc       $pdata$_CRT_INIT           00000001800259cc     MSVCRT:crtdll.obj
 0004:000009d8       $pdata$_DllMainCRTStartup  00000001800259d8     MSVCRT:crtdll.obj
 0004:000009e4       $pdata$__DllMainCRTStartup 00000001800259e4     MSVCRT:crtdll.obj
 0004:000009f0       $pdata$_IsNonwritableInCurrentImage 00000001800259f0     MSVCRT:pesect.obj
 0004:000009fc       $pdata$__atonexitinit      00000001800259fc     MSVCRT:atonexit.obj
 0004:00000a08       $pdata$_onexit             0000000180025a08     MSVCRT:atonexit.obj
 0004:00000a14       $pdata$atexit              0000000180025a14     MSVCRT:atonexit.obj
 0004:00000a20       $pdata$__security_init_cookie 0000000180025a20     MSVCRT:gs_support.obj
 0004:00000a2c       $pdata$DllMain             0000000180025a2c     MSVCRT:dllmain.obj
 0004:00000a38       $pdata$_RTC_Initialize     0000000180025a38     MSVCRT:initsect.obj
 0004:00000a44       $pdata$_RTC_Terminate      0000000180025a44     MSVCRT:initsect.obj
 0004:00000a50       $pdata$__DllMainCRTStartup$filt$0 0000000180025a50     MSVCRT:crtdll.obj
 0004:00000a5c       $pdata$__DllMainCRTStartup$fin$1 0000000180025a5c     MSVCRT:crtdll.obj
 0004:00000a68       $pdata$_IsNonwritableInCurrentImage$filt$0 0000000180025a68     MSVCRT:pesect.obj
 0004:00000a74       $pdata$_onexit$fin$0       0000000180025a74     MSVCRT:atonexit.obj
