 untitled_sfun

 Timestamp is 5629bab7 (Fri Oct 23 00:42:31 2015)

 Preferred load address is 0000000180000000

 Start         Length     Name                   Class
 0001:00000000 00012dc2H .text                   CODE
 0001:00012dd0 0000007bH .text$x                 CODE
 0002:00000000 00000488H .idata$5                DATA
 0002:00000488 00000008H .CRT$XCA                DATA
 0002:00000490 00000008H .CRT$XCZ                DATA
 0002:00000498 00000008H .CRT$XIA                DATA
 0002:000004a0 00000008H .CRT$XIAA               DATA
 0002:000004a8 00000008H .CRT$XIC                DATA
 0002:000004b0 00000008H .CRT$XIZ                DATA
 0002:000004c0 00000790H .rdata                  DATA
 0002:00000c50 00000008H .rtc$IAA                DATA
 0002:00000c58 00000008H .rtc$IZZ                DATA
 0002:00000c60 00000008H .rtc$TAA                DATA
 0002:00000c68 00000008H .rtc$TZZ                DATA
 0002:00000c70 00000724H .xdata                  DATA
 0002:00001394 0000008cH .idata$2                DATA
 0002:00001420 00000014H .idata$3                DATA
 0002:00001438 00000488H .idata$4                DATA
 0002:000018c0 00000cc2H .idata$6                DATA
 0002:00002590 00000053H .edata                  DATA
 0003:00000000 00003f98H .data                   DATA
 0003:00003fa0 000006c8H .bss                    DATA
 0004:00000000 00000858H .pdata                  DATA

  Address         Publics by Value              Rva+Base               Lib:Object

 0000:00000000       ___safe_se_handler_count   0000000000000000     <absolute>
 0000:00000000       ___safe_se_handler_table   0000000000000000     <absolute>
 0000:00000000       __ImageBase                0000000180000000     <linker-defined>
 0001:00000000       untitled_initializer       0000000180001000 f   untitled_sfun.obj
 0001:00000010       untitled_terminator        0000000180001010 f   untitled_sfun.obj
 0001:00000020       load_untitled_optimization_info 0000000180001020 f   untitled_sfun.obj
 0001:00000070       unload_untitled_optimization_info 0000000180001070 f   untitled_sfun.obj
 0001:000000a0       sf_untitled_method_dispatcher 00000001800010a0 f   untitled_sfun.obj
 0001:000000f0       sf_untitled_uses_exported_functions 00000001800010f0 f   untitled_sfun.obj
 0001:00000130       sf_untitled_process_check_sum_call 0000000180001130 f   untitled_sfun.obj
 0001:000007b0       sf_untitled_autoinheritance_info 00000001800017b0 f   untitled_sfun.obj
 0001:00000990       sf_untitled_get_eml_resolved_functions_info 0000000180001990 f   untitled_sfun.obj
 0001:00000b10       sf_untitled_third_party_uses_info 0000000180001b10 f   untitled_sfun.obj
 0001:00000ce0       sf_untitled_jit_fallback_info 0000000180001ce0 f   untitled_sfun.obj
 0001:00000eb0       sf_untitled_updateBuildInfo_args_info 0000000180001eb0 f   untitled_sfun.obj
 0001:00001080       sf_untitled_get_post_codegen_info 0000000180002080 f   untitled_sfun.obj
 0001:000011a0       untitled_debug_initialize  00000001800021a0 f   untitled_sfun.obj
 0001:00001220       untitled_register_exported_symbols 0000000180002220 f   untitled_sfun.obj
 0001:00001230       sf_c1_untitled_get_eml_resolved_functions_info 0000000180002230 f   c1_untitled.obj
 0001:000012a0       sf_c1_untitled_get_check_sum 00000001800022a0 f   c1_untitled.obj
 0001:00001370       c1_untitled_method_dispatcher 0000000180002370 f   c1_untitled.obj
 0001:00009430       sf_c1_untitled_get_post_codegen_info 000000018000a430 f   c1_untitled.obj
 0001:00009500       sf_c1_untitled_get_autoinheritance_info 000000018000a500 f   c1_untitled.obj
 0001:00009aa0       sf_c1_untitled_third_party_uses_info 000000018000aaa0 f   c1_untitled.obj
 0001:00009ad0       sf_c1_untitled_jit_fallback_info 000000018000aad0 f   c1_untitled.obj
 0001:00009bc0       sf_c1_untitled_updateBuildInfo_args_info 000000018000abc0 f   c1_untitled.obj
 0001:0000b220       mexFunction                000000018000c220 f   untitled_sfun_registry.obj
 0001:0000c3c0       _ssSetInputPortDirectFeedThroughFcn 000000018000d3c0 f   untitled_sfun_registry.obj
 0001:0000c520       _ssGetInputPortSignalPtrsFcn 000000018000d520 f   untitled_sfun_registry.obj
 0001:0000c740       _ssGetInputPortSignalFcn   000000018000d740 f   untitled_sfun_registry.obj
 0001:0000c960       _ssSetInputPortReusableFcn 000000018000d960 f   untitled_sfun_registry.obj
 0001:0000ca40       _ssSetOutputPortReusableFcn 000000018000da40 f   untitled_sfun_registry.obj
 0001:0000cb20       ssGetIsZeroCrossControlDisabled 000000018000db20 f   untitled_sfun_registry.obj
 0001:0000cb90       ssSetIsInputPortUsedForContZcSignal 000000018000db90 f   untitled_sfun_registry.obj
 0001:0000cc00       ssSetZcSignalIsZcElementDisc 000000018000dc00 f   untitled_sfun_registry.obj
 0001:0000ccb0       ssSetZcSignalName          000000018000dcb0 f   untitled_sfun_registry.obj
 0001:0000cd20       ssSetZcSignalWidth         000000018000dd20 f   untitled_sfun_registry.obj
 0001:0000cd90       ssSetZcSignalZcEventType   000000018000dd90 f   untitled_sfun_registry.obj
 0001:0000ce00       ssSetZcSignalType          000000018000de00 f   untitled_sfun_registry.obj
 0001:0000ce70       ssSetZcSignalZcTol         000000018000de70 f   untitled_sfun_registry.obj
 0001:0000cee0       ssSetZcSignalNeedsEventNotification 000000018000dee0 f   untitled_sfun_registry.obj
 0001:0000cf50       ssCreateAndAddZcSignalInfo 000000018000df50 f   untitled_sfun_registry.obj
 0001:0000cfc0       ssCloneAndAddZcSignalInfo  000000018000dfc0 f   untitled_sfun_registry.obj
 0001:0000d030       ssGetNumZcSignals          000000018000e030 f   untitled_sfun_registry.obj
 0001:0000d0a0       ssGetZcSignalVector        000000018000e0a0 f   untitled_sfun_registry.obj
 0001:0000d110       ssGetZcSignalName          000000018000e110 f   untitled_sfun_registry.obj
 0001:0000d180       ssGetZcSignalWidth         000000018000e180 f   untitled_sfun_registry.obj
 0001:0000d1f0       ssGetZcSignalZcEventType   000000018000e1f0 f   untitled_sfun_registry.obj
 0001:0000d260       ssGetZcSignalZcEvents      000000018000e260 f   untitled_sfun_registry.obj
 0001:0000d2d0       ssGetZcSignalType          000000018000e2d0 f   untitled_sfun_registry.obj
 0001:0000d340       ssGetZcSignalZcTol         000000018000e340 f   untitled_sfun_registry.obj
 0001:0000d3c0       ssGetZcSignalNeedsEventNotification 000000018000e3c0 f   untitled_sfun_registry.obj
 0001:0000d430       ssGetZcSignalIsZcElementDisc 000000018000e430 f   untitled_sfun_registry.obj
 0001:0000d4d0       ssGetIsInputPortElementContinuous 000000018000e4d0 f   untitled_sfun_registry.obj
 0001:0000d570       ssGetDTypeIdFromMxArray    000000018000e570 f   untitled_sfun_registry.obj
 0001:0000d690       ssWriteRTWStr              000000018000e690 f   untitled_sfun_registry.obj
 0001:0000d6f0       ssWriteRTWNameValuePair    000000018000e6f0 f   untitled_sfun_registry.obj
 0001:0000dbf0       ssWriteRTWParamSettings    000000018000ebf0 f   untitled_sfun_registry.obj
 0001:0000e2e0       ssWriteRTWParameters       000000018000f2e0 f   untitled_sfun_registry.obj
 0001:0000e8b0       ssWriteRTWWorkVect         000000018000f8b0 f   untitled_sfun_registry.obj
 0001:0000eda0       ssWriteRTWMxVectParam      000000018000fda0 f   untitled_sfun_registry.obj
 0001:0000ee20       ssWriteRTWMx2dMatParam     000000018000fe20 f   untitled_sfun_registry.obj
 0001:0000eeb0       _ssSetInputPortMatrixDimensions 000000018000feb0 f   untitled_sfun_registry.obj
 0001:0000efb0       _ssSetOutputPortMatrixDimensions 000000018000ffb0 f   untitled_sfun_registry.obj
 0001:0000f0b0       _ssSetInputPortVectorDimension 00000001800100b0 f   untitled_sfun_registry.obj
 0001:0000f160       _ssSetOutputPortVectorDimension 0000000180010160 f   untitled_sfun_registry.obj
 0001:0000f210       ssIsRunTimeParamTunable    0000000180010210 f   untitled_sfun_registry.obj
 0001:0000f280       ssGetSFuncBlockHandle      0000000180010280 f   untitled_sfun_registry.obj
 0001:0000f2f0       _ssGetCurrentInputPortWidth 00000001800102f0 f   untitled_sfun_registry.obj
 0001:0000f410       _ssGetCurrentOutputPortWidth 0000000180010410 f   untitled_sfun_registry.obj
 0001:0000f530       _ssGetCallSystemNumFcnCallDestinations 0000000180010530 f   untitled_sfun_registry.obj
 0001:0000f5a0       ssWarning                  00000001800105a0 f   untitled_sfun_registry.obj
 0001:0000f690       _ssGetAbsTol               0000000180010690 f   untitled_sfun_registry.obj
 0001:0000f700       _ssSetStateAbsTol          0000000180010700 f   untitled_sfun_registry.obj
 0001:0000f7e0       sf_process_check_sum_call  00000001800107e0 f   untitled_sfun_registry.obj
 0001:0000f830       sf_process_machine_uses_exported_functions_call 0000000180010830 f   untitled_sfun_registry.obj
 0001:0000f9e0       sf_process_autoinheritance_call 00000001800109e0 f   untitled_sfun_registry.obj
 0001:0000fc10       sf_process_get_third_party_uses_info_call 0000000180010c10 f   untitled_sfun_registry.obj
 0001:0000fe40       sf_process_get_jit_fallback_info_call 0000000180010e40 f   untitled_sfun_registry.obj
 0001:00010070       sf_process_get_updateBuildInfo_args_info_call 0000000180011070 f   untitled_sfun_registry.obj
 0001:000102a0       sf_process_get_eml_resolved_functions_info_call 00000001800112a0 f   untitled_sfun_registry.obj
 0001:000104a0       sf_process_get_post_codegen_info 00000001800114a0 f   untitled_sfun_registry.obj
 0001:00010650       sf_mex_unlock_call         0000000180011650 f   untitled_sfun_registry.obj
 0001:00010930       sf_machine_global_initializer_called 0000000180011930 f   untitled_sfun_registry.obj
 0001:00010960       sf_machine_global_method_dispatcher 0000000180011960 f   untitled_sfun_registry.obj
 0001:000109c0       sf_machine_global_terminator 00000001800119c0 f   untitled_sfun_registry.obj
 0001:00010a10       sf_register_machine_exported_symbols 0000000180011a10 f   untitled_sfun_registry.obj
 0001:00010a30       callCustomFcn              0000000180011a30 f   untitled_sfun_registry.obj
 0001:00010a40       sf_machine_global_initializer 0000000180011a40 f   untitled_sfun_registry.obj
 0001:00010b00       mdlGetSimState             0000000180011b00 f   untitled_sfun_registry.obj
 0001:00010b40       mdlSetSimState             0000000180011b40 f   untitled_sfun_registry.obj
 0001:00011310       ProcessMexSfunctionEveryCall 0000000180012310 f   untitled_sfun_registry.obj
 0001:00011f84       sf_load_rtw_optimization_info 0000000180012f84 f   sf_runtime:sf_runtime.dll
 0001:00011f8a       sf_debug_initialize_machine 0000000180012f8a f   sf_runtime:sf_runtime.dll
 0001:00011f90       sf_debug_set_machine_event_thresholds 0000000180012f90 f   sf_runtime:sf_runtime.dll
 0001:00011f96       sf_debug_set_machine_data_thresholds 0000000180012f96 f   sf_runtime:sf_runtime.dll
 0001:00011f9c       sf_rtw_info_uint_prop      0000000180012f9c f   sf_runtime:sf_runtime.dll
 0001:00011fa2       sf_update_buildInfo        0000000180012fa2 f   sf_runtime:sf_runtime.dll
 0001:00011fa8       sf_is_chart_inlinable      0000000180012fa8 f   sf_runtime:sf_runtime.dll
 0001:00011fae       sf_mark_chart_reusable_outputs 0000000180012fae f   sf_runtime:sf_runtime.dll
 0001:00011fb4       sf_mark_chart_expressionable_inputs 0000000180012fb4 f   sf_runtime:sf_runtime.dll
 0001:00011fba       sim_mode_is_rtw_gen        0000000180012fba f   sf_runtime:sf_runtime.dll
 0001:00011fc0       sim_mode_is_external       0000000180012fc0 f   sf_runtime:sf_runtime.dll
 0001:00011fc6       sf_clear_rtw_identifier    0000000180012fc6 f   sf_runtime:sf_runtime.dll
 0001:00011fcc       sf_set_rtw_dwork_info      0000000180012fcc f   sf_runtime:sf_runtime.dll
 0001:00011fd2       sf_get_time                0000000180012fd2 f   sf_runtime:sf_runtime.dll
 0001:00011fd8       sf_mex_error_message       0000000180012fd8 f   sf_runtime:sf_runtime.dll
 0001:00011fde       sf_mex_addfield            0000000180012fde f   sf_runtime:sf_runtime.dll
 0001:00011fe4       sf_mex_createstruct        0000000180012fe4 f   sf_runtime:sf_runtime.dll
 0001:00011fea       sf_mex_create              0000000180012fea f   sf_runtime:sf_runtime.dll
 0001:00011ff0       sf_mex_createcellmatrix    0000000180012ff0 f   sf_runtime:sf_runtime.dll
 0001:00011ff6       sf_mex_setcell             0000000180012ff6 f   sf_runtime:sf_runtime.dll
 0001:00011ffc       sf_mex_getcell             0000000180012ffc f   sf_runtime:sf_runtime.dll
 0001:00012002       sf_mex_assign              0000000180013002 f   sf_runtime:sf_runtime.dll
 0001:00012008       sf_mex_dup                 0000000180013008 f   sf_runtime:sf_runtime.dll
 0001:0001200e       sf_mex_destroy             000000018001300e f   sf_runtime:sf_runtime.dll
 0001:00012014       sf_mex_import              0000000180013014 f   sf_runtime:sf_runtime.dll
 0001:0001201a       sf_mex_decode_encoded_mx_struct_array 000000018001301a f   sf_runtime:sf_runtime.dll
 0001:00012020       sf_mex_duplicatearraysafe  0000000180013020 f   sf_runtime:sf_runtime.dll
 0001:00012026       sf_mex_emlrtNameCapturePostProcessR2012a 0000000180013026 f   sf_runtime:sf_runtime.dll
 0001:0001202c       ssGetInputPortSignal_wrapper 000000018001302c f   sf_runtime:sf_runtime.dll
 0001:00012032       ssGetOutputPortSignal_wrapper 0000000180013032 f   sf_runtime:sf_runtime.dll
 0001:00012038       sf_debug_initialize_chart  0000000180013038 f   sf_runtime:sf_runtime.dll
 0001:0001203e       sf_debug_call              000000018001303e f   sf_runtime:sf_runtime.dll
 0001:00012044       eml_debug_line_call        0000000180013044 f   sf_runtime:sf_runtime.dll
 0001:0001204a       cv_eml_eval                000000018001304a f   sf_runtime:sf_runtime.dll
 0001:00012050       cv_eval_relational         0000000180013050 f   sf_runtime:sf_runtime.dll
 0001:00012056       cv_eml_init_script         0000000180013056 f   sf_runtime:sf_runtime.dll
 0001:0001205c       cv_eml_init_fcn            000000018001305c f   sf_runtime:sf_runtime.dll
 0001:00012062       cv_eml_init_if             0000000180013062 f   sf_runtime:sf_runtime.dll
 0001:00012068       cv_eml_init_relational     0000000180013068 f   sf_runtime:sf_runtime.dll
 0001:0001206e       cv_script_eval             000000018001306e f   sf_runtime:sf_runtime.dll
 0001:00012074       cv_script_init_script      0000000180013074 f   sf_runtime:sf_runtime.dll
 0001:0001207a       cv_script_init_fcn         000000018001307a f   sf_runtime:sf_runtime.dll
 0001:00012080       sf_debug_reset_current_state_configuration 0000000180013080 f   sf_runtime:sf_runtime.dll
 0001:00012086       sf_debug_check_for_state_inconsistency 0000000180013086 f   sf_runtime:sf_runtime.dll
 0001:0001208c       sf_debug_set_chart_data_props 000000018001308c f   sf_runtime:sf_runtime.dll
 0001:00012092       sf_debug_set_chart_data_compiled_props 0000000180013092 f   sf_runtime:sf_runtime.dll
 0001:00012098       sf_debug_symbol_scope_push 0000000180013098 f   sf_runtime:sf_runtime.dll
 0001:0001209e       sf_debug_symbol_scope_push_eml 000000018001309e f   sf_runtime:sf_runtime.dll
 0001:000120a4       sf_debug_symbol_scope_pop  00000001800130a4 f   sf_runtime:sf_runtime.dll
 0001:000120aa       sf_debug_symbol_scope_add_eml 00000001800130aa f   sf_runtime:sf_runtime.dll
 0001:000120b0       sf_debug_symbol_scope_add_eml_importable 00000001800130b0 f   sf_runtime:sf_runtime.dll
 0001:000120b6       sf_debug_set_instance_data_value_ptr 00000001800130b6 f   sf_runtime:sf_runtime.dll
 0001:000120bc       sf_debug_set_chart_disable_implicit_casting 00000001800130bc f   sf_runtime:sf_runtime.dll
 0001:000120c2       sf_debug_set_chart_event_thresholds 00000001800130c2 f   sf_runtime:sf_runtime.dll
 0001:000120c8       sf_debug_set_chart_state_info 00000001800130c8 f   sf_runtime:sf_runtime.dll
 0001:000120ce       sf_debug_set_chart_decomposition 00000001800130ce f   sf_runtime:sf_runtime.dll
 0001:000120d4       sf_debug_set_chart_substate_count 00000001800130d4 f   sf_runtime:sf_runtime.dll
 0001:000120da       sf_debug_data_range_wrapper 00000001800130da f   sf_runtime:sf_runtime.dll
 0001:000120e0       sf_debug_cv_init_trans     00000001800130e0 f   sf_runtime:sf_runtime.dll
 0001:000120e6       sf_debug_cv_init_chart     00000001800130e6 f   sf_runtime:sf_runtime.dll
 0001:000120ec       sf_debug_cv_init_state     00000001800130ec f   sf_runtime:sf_runtime.dll
 0001:000120f2       sf_debug_get_script_id     00000001800130f2 f   sf_runtime:sf_runtime.dll
 0001:000120f8       sf_debug_set_script_translation 00000001800130f8 f   sf_runtime:sf_runtime.dll
 0001:000120fe       callMdlMethodAndReportError 00000001800130fe f   sf_runtime:sf_runtime.dll
 0001:00012104       call_sf_machine_global_method_dispatcher 0000000180013104 f   sf_runtime:sf_runtime.dll
 0001:0001210a       sf_mex_error_direct_call   000000018001310a f   sf_runtime:sf_runtime.dll
 0001:00012110       sf_clear_error_manager_info 0000000180013110 f   sf_runtime:sf_runtime.dll
 0001:00012116       sf_debug_create_debug_instance_struct 0000000180013116 f   sf_runtime:sf_runtime.dll
 0001:0001211c       sf_debug_terminate         000000018001311c f   sf_runtime:sf_runtime.dll
 0001:00012122       sf_debug_api               0000000180013122 f   sf_runtime:sf_runtime.dll
 0001:00012128       mxIsChar                   0000000180013128 f   libmx:libmx.dll
 0001:0001212e       mxGetPr                    000000018001312e f   libmx:libmx.dll
 0001:00012134       mxGetScalar                0000000180013134 f   libmx:libmx.dll
 0001:0001213a       mxDestroyArray             000000018001313a f   libmx:libmx.dll
 0001:00012140       mxCreateDoubleMatrix_730   0000000180013140 f   libmx:libmx.dll
 0001:00012146       mxCreateLogicalScalar      0000000180013146 f   libmx:libmx.dll
 0001:0001214c       mxGetString_730            000000018001314c f   libmx:libmx.dll
 0001:00012152       mxDuplicateArray           0000000180013152 f   libmx:libmx.dll
 0001:00012158       mxSetField_730             0000000180013158 f   libmx:libmx.dll
 0001:0001215e       mxCreateDoubleScalar       000000018001315e f   libmx:libmx.dll
 0001:00012164       mxCreateString             0000000180013164 f   libmx:libmx.dll
 0001:0001216a       mxCreateCellMatrix_730     000000018001316a f   libmx:libmx.dll
 0001:00012170       mxCreateCellArray_730      0000000180013170 f   libmx:libmx.dll
 0001:00012176       mxCreateStructMatrix_730   0000000180013176 f   libmx:libmx.dll
 0001:0001217c       mxCreateStructArray_730    000000018001317c f   libmx:libmx.dll
 0001:00012182       mxCalloc                   0000000180013182 f   libmx:libmx.dll
 0001:00012188       mxGetM                     0000000180013188 f   libmx:libmx.dll
 0001:0001218e       mxGetClassID               000000018001318e f   libmx:libmx.dll
 0001:00012194       mxIsNumeric                0000000180013194 f   libmx:libmx.dll
 0001:0001219a       mxIsComplex                000000018001319a f   libmx:libmx.dll
 0001:000121a0       mxGetN                     00000001800131a0 f   libmx:libmx.dll
 0001:000121a6       mexMakeArrayPersistent     00000001800131a6 f   libmex:libmex.dll
 0001:000121ac       mexErrMsgTxt               00000001800131ac f   libmex:libmex.dll
 0001:000121b2       mexWarnMsgTxt              00000001800131b2 f   libmex:libmex.dll
 0001:000121b8       mexCallMATLABWithObject    00000001800131b8 f   libmex:libmex.dll
 0001:000121be       mexLock                    00000001800131be f   libmex:libmex.dll
 0001:000121c4       mexUnlock                  00000001800131c4 f   libmex:libmex.dll
 0001:000121ca       mexIsLocked                00000001800131ca f   libmex:libmex.dll
 0001:000121d0       utMalloc                   00000001800131d0 f   libut:libut.dll
 0001:000121d6       utFree                     00000001800131d6 f   libut:libut.dll
 0001:000121dc       muDoubleScalarAbs          00000001800131dc f   libmwmathutil:libmwmathutil.dll
 0001:000121e2       muDoubleScalarCos          00000001800131e2 f   libmwmathutil:libmwmathutil.dll
 0001:000121e8       muDoubleScalarSin          00000001800131e8 f   libmwmathutil:libmwmathutil.dll
 0001:000121ee       muDoubleScalarSign         00000001800131ee f   libmwmathutil:libmwmathutil.dll
 0001:000121f4       __raise_securityfailure    00000001800131f4 f   MSVCRT:gs_report.obj
 0001:00012240       __report_gsfailure         0000000180013240 f   MSVCRT:gs_report.obj
 0001:00012314       __report_rangecheckfailure 0000000180013314 f   MSVCRT:gs_report.obj
 0001:00012328       __report_securityfailure   0000000180013328 f   MSVCRT:gs_report.obj
 0001:000123c4       __report_securityfailureEx 00000001800133c4 f   MSVCRT:gs_report.obj
 0001:000124d2       strcmp                     00000001800134d2 f   MSVCRT:MSVCR110.dll
 0001:000124d8       __GSHandlerCheck           00000001800134d8 f   MSVCRT:gshandler.obj
 0001:000124f8       __GSHandlerCheckCommon     00000001800134f8 f   MSVCRT:gshandler.obj
 0001:00012570       __security_check_cookie    0000000180013570 f   MSVCRT:amdsecgs.obj
 0001:00012590       memset                     0000000180013590 f   MSVCRT:MSVCR110.dll
 0001:00012596       strlen                     0000000180013596 f   MSVCRT:MSVCR110.dll
 0001:0001259c       memcpy                     000000018001359c f   MSVCRT:MSVCR110.dll
 0001:000125a2       strcat                     00000001800135a2 f   MSVCRT:MSVCR110.dll
 0001:000125a8       sprintf                    00000001800135a8 f   MSVCRT:MSVCR110.dll
 0001:000125ae       free                       00000001800135ae f   MSVCRT:MSVCR110.dll
 0001:000125b4       malloc                     00000001800135b4 f   MSVCRT:MSVCR110.dll
 0001:0001261c       NtCurrentTeb               000000018001361c f i MSVCRT:crtdll.obj
 0001:00012628       _CRT_INIT                  0000000180013628 f   MSVCRT:crtdll.obj
 0001:00012874       _DllMainCRTStartup         0000000180013874 f   MSVCRT:crtdll.obj
 0001:000129ea       __crt_debugger_hook        00000001800139ea f   MSVCRT:MSVCR110.dll
 0001:000129f0       __crtUnhandledException    00000001800139f0 f   MSVCRT:MSVCR110.dll
 0001:000129f6       __crtTerminateProcess      00000001800139f6 f   MSVCRT:MSVCR110.dll
 0001:000129fc       __crtCaptureCurrentContext 00000001800139fc f   MSVCRT:MSVCR110.dll
 0001:00012a02       __crtCapturePreviousContext 0000000180013a02 f   MSVCRT:MSVCR110.dll
 0001:00012a08       __CppXcptFilter            0000000180013a08 f   MSVCRT:MSVCR110.dll
 0001:00012a0e       _amsg_exit                 0000000180013a0e f   MSVCRT:MSVCR110.dll
 0001:00012a20       _FindPESection             0000000180013a20 f   MSVCRT:pesect.obj
 0001:00012a70       _IsNonwritableInCurrentImage 0000000180013a70 f   MSVCRT:pesect.obj
 0001:00012ac0       _ValidateImageBase         0000000180013ac0 f   MSVCRT:pesect.obj
 0001:00012af0       __atonexitinit             0000000180013af0 f   MSVCRT:atonexit.obj
 0001:00012b40       _onexit                    0000000180013b40 f   MSVCRT:atonexit.obj
 0001:00012bf0       atexit                     0000000180013bf0 f   MSVCRT:atonexit.obj
 0001:00012c08       __security_init_cookie     0000000180013c08 f   MSVCRT:gs_support.obj
 0001:00012cb4       DllMain                    0000000180013cb4 f   MSVCRT:dllmain.obj
 0001:00012cd8       _malloc_crt                0000000180013cd8 f   MSVCRT:MSVCR110.dll
 0001:00012ce0       _RTC_Initialize            0000000180013ce0 f   MSVCRT:initsect.obj
 0001:00012d18       _RTC_Terminate             0000000180013d18 f   MSVCRT:initsect.obj
 0001:00012d50       _initterm                  0000000180013d50 f   MSVCRT:MSVCR110.dll
 0001:00012d56       _initterm_e                0000000180013d56 f   MSVCRT:MSVCR110.dll
 0001:00012d5c       __clean_type_info_names    0000000180013d5c f   MSVCRT:tncleanup.obj
 0001:00012d68       __C_specific_handler       0000000180013d68 f   MSVCRT:MSVCR110.dll
 0001:00012d6e       _lock                      0000000180013d6e f   MSVCRT:MSVCR110.dll
 0001:00012d74       _unlock                    0000000180013d74 f   MSVCRT:MSVCR110.dll
 0001:00012d7a       _calloc_crt                0000000180013d7a f   MSVCRT:MSVCR110.dll
 0001:00012d80       __dllonexit                0000000180013d80 f   MSVCRT:MSVCR110.dll
 0001:00012d86       __clean_type_info_names_internal 0000000180013d86 f   MSVCRT:MSVCR110.dll
 0001:00012d8c       IsDebuggerPresent          0000000180013d8c f   kernel32:KERNEL32.dll
 0001:00012d92       IsProcessorFeaturePresent  0000000180013d92 f   kernel32:KERNEL32.dll
 0001:00012d98       EncodePointer              0000000180013d98 f   kernel32:KERNEL32.dll
 0001:00012d9e       DecodePointer              0000000180013d9e f   kernel32:KERNEL32.dll
 0001:00012da4       QueryPerformanceCounter    0000000180013da4 f   kernel32:KERNEL32.dll
 0001:00012daa       GetCurrentProcessId        0000000180013daa f   kernel32:KERNEL32.dll
 0001:00012db0       GetCurrentThreadId         0000000180013db0 f   kernel32:KERNEL32.dll
 0001:00012db6       GetSystemTimeAsFileTime    0000000180013db6 f   kernel32:KERNEL32.dll
 0001:00012dbc       DisableThreadLibraryCalls  0000000180013dbc f   kernel32:KERNEL32.dll
 0002:00000000       __imp_DisableThreadLibraryCalls 0000000180014000     kernel32:KERNEL32.dll
 0002:00000008       __imp_GetSystemTimeAsFileTime 0000000180014008     kernel32:KERNEL32.dll
 0002:00000010       __imp_GetCurrentThreadId   0000000180014010     kernel32:KERNEL32.dll
 0002:00000018       __imp_GetCurrentProcessId  0000000180014018     kernel32:KERNEL32.dll
 0002:00000020       __imp_QueryPerformanceCounter 0000000180014020     kernel32:KERNEL32.dll
 0002:00000028       __imp_DecodePointer        0000000180014028     kernel32:KERNEL32.dll
 0002:00000030       __imp_EncodePointer        0000000180014030     kernel32:KERNEL32.dll
 0002:00000038       __imp_IsProcessorFeaturePresent 0000000180014038     kernel32:KERNEL32.dll
 0002:00000040       __imp_IsDebuggerPresent    0000000180014040     kernel32:KERNEL32.dll
 0002:00000048       \177KERNEL32_NULL_THUNK_DATA 0000000180014048     kernel32:KERNEL32.dll
 0002:00000050       __imp___clean_type_info_names_internal 0000000180014050     MSVCRT:MSVCR110.dll
 0002:00000058       __imp__onexit              0000000180014058     MSVCRT:MSVCR110.dll
 0002:00000060       __imp___dllonexit          0000000180014060     MSVCRT:MSVCR110.dll
 0002:00000068       __imp__calloc_crt          0000000180014068     MSVCRT:MSVCR110.dll
 0002:00000070       __imp__unlock              0000000180014070     MSVCRT:MSVCR110.dll
 0002:00000078       __imp__lock                0000000180014078     MSVCRT:MSVCR110.dll
 0002:00000080       __imp___C_specific_handler 0000000180014080     MSVCRT:MSVCR110.dll
 0002:00000088       __imp__initterm_e          0000000180014088     MSVCRT:MSVCR110.dll
 0002:00000090       __imp__initterm            0000000180014090     MSVCRT:MSVCR110.dll
 0002:00000098       __imp__malloc_crt          0000000180014098     MSVCRT:MSVCR110.dll
 0002:000000a0       __imp__amsg_exit           00000001800140a0     MSVCRT:MSVCR110.dll
 0002:000000a8       __imp___CppXcptFilter      00000001800140a8     MSVCRT:MSVCR110.dll
 0002:000000b0       __imp___crtCapturePreviousContext 00000001800140b0     MSVCRT:MSVCR110.dll
 0002:000000b8       __imp___crtCaptureCurrentContext 00000001800140b8     MSVCRT:MSVCR110.dll
 0002:000000c0       __imp___crtTerminateProcess 00000001800140c0     MSVCRT:MSVCR110.dll
 0002:000000c8       __imp___crtUnhandledException 00000001800140c8     MSVCRT:MSVCR110.dll
 0002:000000d0       __imp___crt_debugger_hook  00000001800140d0     MSVCRT:MSVCR110.dll
 0002:000000d8       __imp_malloc               00000001800140d8     MSVCRT:MSVCR110.dll
 0002:000000e0       __imp_free                 00000001800140e0     MSVCRT:MSVCR110.dll
 0002:000000e8       __imp_sprintf              00000001800140e8     MSVCRT:MSVCR110.dll
 0002:000000f0       __imp_strcat               00000001800140f0     MSVCRT:MSVCR110.dll
 0002:000000f8       __imp_memcpy               00000001800140f8     MSVCRT:MSVCR110.dll
 0002:00000100       __imp_strlen               0000000180014100     MSVCRT:MSVCR110.dll
 0002:00000108       __imp_memset               0000000180014108     MSVCRT:MSVCR110.dll
 0002:00000110       __imp_strcmp               0000000180014110     MSVCRT:MSVCR110.dll
 0002:00000118       \177MSVCR110_NULL_THUNK_DATA 0000000180014118     MSVCRT:MSVCR110.dll
 0002:00000120       __imp_mexIsLocked          0000000180014120     libmex:libmex.dll
 0002:00000128       __imp_mexErrMsgTxt         0000000180014128     libmex:libmex.dll
 0002:00000130       __imp_mexWarnMsgTxt        0000000180014130     libmex:libmex.dll
 0002:00000138       __imp_mexCallMATLABWithObject 0000000180014138     libmex:libmex.dll
 0002:00000140       __imp_mexLock              0000000180014140     libmex:libmex.dll
 0002:00000148       __imp_mexMakeArrayPersistent 0000000180014148     libmex:libmex.dll
 0002:00000150       __imp_mexUnlock            0000000180014150     libmex:libmex.dll
 0002:00000158       \177libmex_NULL_THUNK_DATA 0000000180014158     libmex:libmex.dll
 0002:00000160       __imp_muDoubleScalarCos    0000000180014160     libmwmathutil:libmwmathutil.dll
 0002:00000168       __imp_muDoubleScalarSin    0000000180014168     libmwmathutil:libmwmathutil.dll
 0002:00000170       __imp_muDoubleScalarSign   0000000180014170     libmwmathutil:libmwmathutil.dll
 0002:00000178       __imp_muDoubleScalarAbs    0000000180014178     libmwmathutil:libmwmathutil.dll
 0002:00000180       \177libmwmathutil_NULL_THUNK_DATA 0000000180014180     libmwmathutil:libmwmathutil.dll
 0002:00000188       __imp_mxGetN               0000000180014188     libmx:libmx.dll
 0002:00000190       __imp_mxIsComplex          0000000180014190     libmx:libmx.dll
 0002:00000198       __imp_mxIsNumeric          0000000180014198     libmx:libmx.dll
 0002:000001a0       __imp_mxGetClassID         00000001800141a0     libmx:libmx.dll
 0002:000001a8       __imp_mxGetM               00000001800141a8     libmx:libmx.dll
 0002:000001b0       __imp_mxCalloc             00000001800141b0     libmx:libmx.dll
 0002:000001b8       __imp_mxCreateStructArray_730 00000001800141b8     libmx:libmx.dll
 0002:000001c0       __imp_mxCreateStructMatrix_730 00000001800141c0     libmx:libmx.dll
 0002:000001c8       __imp_mxCreateCellArray_730 00000001800141c8     libmx:libmx.dll
 0002:000001d0       __imp_mxCreateCellMatrix_730 00000001800141d0     libmx:libmx.dll
 0002:000001d8       __imp_mxCreateString       00000001800141d8     libmx:libmx.dll
 0002:000001e0       __imp_mxCreateDoubleScalar 00000001800141e0     libmx:libmx.dll
 0002:000001e8       __imp_mxSetField_730       00000001800141e8     libmx:libmx.dll
 0002:000001f0       __imp_mxDuplicateArray     00000001800141f0     libmx:libmx.dll
 0002:000001f8       __imp_mxGetString_730      00000001800141f8     libmx:libmx.dll
 0002:00000200       __imp_mxCreateLogicalScalar 0000000180014200     libmx:libmx.dll
 0002:00000208       __imp_mxCreateDoubleMatrix_730 0000000180014208     libmx:libmx.dll
 0002:00000210       __imp_mxDestroyArray       0000000180014210     libmx:libmx.dll
 0002:00000218       __imp_mxGetScalar          0000000180014218     libmx:libmx.dll
 0002:00000220       __imp_mxGetPr              0000000180014220     libmx:libmx.dll
 0002:00000228       __imp_mxIsChar             0000000180014228     libmx:libmx.dll
 0002:00000230       \177libmx_NULL_THUNK_DATA  0000000180014230     libmx:libmx.dll
 0002:00000238       __imp_utMalloc             0000000180014238     libut:libut.dll
 0002:00000240       __imp_utFree               0000000180014240     libut:libut.dll
 0002:00000248       \177libut_NULL_THUNK_DATA  0000000180014248     libut:libut.dll
 0002:00000250       __imp_sf_debug_create_debug_instance_struct 0000000180014250     sf_runtime:sf_runtime.dll
 0002:00000258       __imp_sf_clear_error_manager_info 0000000180014258     sf_runtime:sf_runtime.dll
 0002:00000260       __imp_sf_mex_error_direct_call 0000000180014260     sf_runtime:sf_runtime.dll
 0002:00000268       __imp_call_sf_machine_global_method_dispatcher 0000000180014268     sf_runtime:sf_runtime.dll
 0002:00000270       __imp_callMdlMethodAndReportError 0000000180014270     sf_runtime:sf_runtime.dll
 0002:00000278       __imp_sf_debug_set_script_translation 0000000180014278     sf_runtime:sf_runtime.dll
 0002:00000280       __imp_sf_debug_get_script_id 0000000180014280     sf_runtime:sf_runtime.dll
 0002:00000288       __imp_sf_debug_cv_init_state 0000000180014288     sf_runtime:sf_runtime.dll
 0002:00000290       __imp_sf_debug_cv_init_chart 0000000180014290     sf_runtime:sf_runtime.dll
 0002:00000298       __imp_sf_debug_cv_init_trans 0000000180014298     sf_runtime:sf_runtime.dll
 0002:000002a0       __imp_sf_debug_data_range_wrapper 00000001800142a0     sf_runtime:sf_runtime.dll
 0002:000002a8       __imp_sf_debug_set_chart_substate_count 00000001800142a8     sf_runtime:sf_runtime.dll
 0002:000002b0       __imp_sf_debug_set_chart_decomposition 00000001800142b0     sf_runtime:sf_runtime.dll
 0002:000002b8       __imp_sf_debug_terminate   00000001800142b8     sf_runtime:sf_runtime.dll
 0002:000002c0       __imp_sf_debug_set_chart_event_thresholds 00000001800142c0     sf_runtime:sf_runtime.dll
 0002:000002c8       __imp_sf_debug_set_chart_disable_implicit_casting 00000001800142c8     sf_runtime:sf_runtime.dll
 0002:000002d0       __imp_sf_debug_set_instance_data_value_ptr 00000001800142d0     sf_runtime:sf_runtime.dll
 0002:000002d8       __imp_sf_debug_symbol_scope_add_eml_importable 00000001800142d8     sf_runtime:sf_runtime.dll
 0002:000002e0       __imp_sf_debug_symbol_scope_add_eml 00000001800142e0     sf_runtime:sf_runtime.dll
 0002:000002e8       __imp_sf_debug_symbol_scope_pop 00000001800142e8     sf_runtime:sf_runtime.dll
 0002:000002f0       __imp_sf_debug_symbol_scope_push_eml 00000001800142f0     sf_runtime:sf_runtime.dll
 0002:000002f8       __imp_sf_debug_symbol_scope_push 00000001800142f8     sf_runtime:sf_runtime.dll
 0002:00000300       __imp_sf_debug_set_chart_data_compiled_props 0000000180014300     sf_runtime:sf_runtime.dll
 0002:00000308       __imp_sf_debug_set_chart_data_props 0000000180014308     sf_runtime:sf_runtime.dll
 0002:00000310       __imp_sf_debug_check_for_state_inconsistency 0000000180014310     sf_runtime:sf_runtime.dll
 0002:00000318       __imp_sf_debug_reset_current_state_configuration 0000000180014318     sf_runtime:sf_runtime.dll
 0002:00000320       __imp_cv_script_init_fcn   0000000180014320     sf_runtime:sf_runtime.dll
 0002:00000328       __imp_sf_debug_api         0000000180014328     sf_runtime:sf_runtime.dll
 0002:00000330       __imp_sf_debug_set_chart_state_info 0000000180014330     sf_runtime:sf_runtime.dll
 0002:00000338       __imp_cv_script_init_script 0000000180014338     sf_runtime:sf_runtime.dll
 0002:00000340       __imp_cv_script_eval       0000000180014340     sf_runtime:sf_runtime.dll
 0002:00000348       __imp_cv_eml_init_relational 0000000180014348     sf_runtime:sf_runtime.dll
 0002:00000350       __imp_cv_eml_init_if       0000000180014350     sf_runtime:sf_runtime.dll
 0002:00000358       __imp_cv_eml_init_fcn      0000000180014358     sf_runtime:sf_runtime.dll
 0002:00000360       __imp_cv_eml_init_script   0000000180014360     sf_runtime:sf_runtime.dll
 0002:00000368       __imp_cv_eval_relational   0000000180014368     sf_runtime:sf_runtime.dll
 0002:00000370       __imp_cv_eml_eval          0000000180014370     sf_runtime:sf_runtime.dll
 0002:00000378       __imp_eml_debug_line_call  0000000180014378     sf_runtime:sf_runtime.dll
 0002:00000380       __imp_sf_debug_call        0000000180014380     sf_runtime:sf_runtime.dll
 0002:00000388       __imp_sf_debug_initialize_chart 0000000180014388     sf_runtime:sf_runtime.dll
 0002:00000390       __imp_ssGetOutputPortSignal_wrapper 0000000180014390     sf_runtime:sf_runtime.dll
 0002:00000398       __imp_ssGetInputPortSignal_wrapper 0000000180014398     sf_runtime:sf_runtime.dll
 0002:000003a0       __imp_sf_mex_emlrtNameCapturePostProcessR2012a 00000001800143a0     sf_runtime:sf_runtime.dll
 0002:000003a8       __imp_sf_mex_duplicatearraysafe 00000001800143a8     sf_runtime:sf_runtime.dll
 0002:000003b0       __imp_sf_mex_decode_encoded_mx_struct_array 00000001800143b0     sf_runtime:sf_runtime.dll
 0002:000003b8       __imp_sf_mex_import        00000001800143b8     sf_runtime:sf_runtime.dll
 0002:000003c0       __imp_sf_mex_destroy       00000001800143c0     sf_runtime:sf_runtime.dll
 0002:000003c8       __imp_sf_mex_dup           00000001800143c8     sf_runtime:sf_runtime.dll
 0002:000003d0       __imp_sf_mex_assign        00000001800143d0     sf_runtime:sf_runtime.dll
 0002:000003d8       __imp_sf_mex_getcell       00000001800143d8     sf_runtime:sf_runtime.dll
 0002:000003e0       __imp_sf_mex_setcell       00000001800143e0     sf_runtime:sf_runtime.dll
 0002:000003e8       __imp_sf_mex_createcellmatrix 00000001800143e8     sf_runtime:sf_runtime.dll
 0002:000003f0       __imp_sf_mex_create        00000001800143f0     sf_runtime:sf_runtime.dll
 0002:000003f8       __imp_sf_mex_createstruct  00000001800143f8     sf_runtime:sf_runtime.dll
 0002:00000400       __imp_sf_mex_addfield      0000000180014400     sf_runtime:sf_runtime.dll
 0002:00000408       __imp_sf_mex_error_message 0000000180014408     sf_runtime:sf_runtime.dll
 0002:00000410       __imp_sf_get_time          0000000180014410     sf_runtime:sf_runtime.dll
 0002:00000418       __imp_sf_set_rtw_dwork_info 0000000180014418     sf_runtime:sf_runtime.dll
 0002:00000420       __imp_sf_clear_rtw_identifier 0000000180014420     sf_runtime:sf_runtime.dll
 0002:00000428       __imp_sim_mode_is_external 0000000180014428     sf_runtime:sf_runtime.dll
 0002:00000430       __imp_sim_mode_is_rtw_gen  0000000180014430     sf_runtime:sf_runtime.dll
 0002:00000438       __imp_sf_mark_chart_expressionable_inputs 0000000180014438     sf_runtime:sf_runtime.dll
 0002:00000440       __imp_sf_mark_chart_reusable_outputs 0000000180014440     sf_runtime:sf_runtime.dll
 0002:00000448       __imp_sf_is_chart_inlinable 0000000180014448     sf_runtime:sf_runtime.dll
 0002:00000450       __imp_sf_update_buildInfo  0000000180014450     sf_runtime:sf_runtime.dll
 0002:00000458       __imp_sf_rtw_info_uint_prop 0000000180014458     sf_runtime:sf_runtime.dll
 0002:00000460       __imp_sf_debug_set_machine_data_thresholds 0000000180014460     sf_runtime:sf_runtime.dll
 0002:00000468       __imp_sf_debug_set_machine_event_thresholds 0000000180014468     sf_runtime:sf_runtime.dll
 0002:00000470       __imp_sf_debug_initialize_machine 0000000180014470     sf_runtime:sf_runtime.dll
 0002:00000478       __imp_sf_load_rtw_optimization_info 0000000180014478     sf_runtime:sf_runtime.dll
 0002:00000480       \177sf_runtime_NULL_THUNK_DATA 0000000180014480     sf_runtime:sf_runtime.dll
 0002:00000488       __xc_a                     0000000180014488     MSVCRT:cinitexe.obj
 0002:00000490       __xc_z                     0000000180014490     MSVCRT:cinitexe.obj
 0002:00000498       __xi_a                     0000000180014498     MSVCRT:cinitexe.obj
 0002:000004b0       __xi_z                     00000001800144b0     MSVCRT:cinitexe.obj
 0002:000004c0       __real@41b0ce0d5e000000    00000001800144c0     untitled_sfun.obj
 0002:000004c8       __real@41b7aa4733000000    00000001800144c8     untitled_sfun.obj
 0002:000004d0       __real@41d0bc0daa800000    00000001800144d0     untitled_sfun.obj
 0002:000004d8       __real@41d1448da3800000    00000001800144d8     untitled_sfun.obj
 0002:000004e0       __real@41d9dfa017000000    00000001800144e0     untitled_sfun.obj
 0002:000004e8       __real@41ddae3573400000    00000001800144e8     untitled_sfun.obj
 0002:000004f0       __real@41dee3b2e3000000    00000001800144f0     untitled_sfun.obj
 0002:000004f8       __real@41e1914a24400000    00000001800144f8     untitled_sfun.obj
 0002:00000500       __real@41e1e4a741400000    0000000180014500     untitled_sfun.obj
 0002:00000508       __real@41e6cf0aa2400000    0000000180014508     untitled_sfun.obj
 0002:00000510       __real@41e6eb9af9800000    0000000180014510     untitled_sfun.obj
 0002:00000518       __real@41e8038ce8200000    0000000180014518     untitled_sfun.obj
 0002:00000520       __real@41ead1319ec00000    0000000180014520     untitled_sfun.obj
 0002:00000528       __real@41ef896ba8e00000    0000000180014528     untitled_sfun.obj
 0002:00000530       __real@41efa6c676400000    0000000180014530     untitled_sfun.obj
 0002:00000538       __real@41efb18590e00000    0000000180014538     untitled_sfun.obj
 0002:00000540       __real@3f50624dd2f1a9fc    0000000180014540     c1_untitled.obj
 0002:00000548       __real@3f847ae147ae147b    0000000180014548     c1_untitled.obj
 0002:00000550       __real@3fac990d829f820f    0000000180014550     c1_untitled.obj
 0002:00000558       __real@3fac990d829f8211    0000000180014558     c1_untitled.obj
 0002:00000560       __real@3fb236d7786d44f3    0000000180014560     c1_untitled.obj
 0002:00000568       __real@3fb352a843808851    0000000180014568     c1_untitled.obj
 0002:00000570       __real@3ff0000000000000    0000000180014570     c1_untitled.obj
 0002:00000578       __real@4000000000000000    0000000180014578     c1_untitled.obj
 0002:00000580       __real@4010000000000000    0000000180014580     c1_untitled.obj
 0002:00000588       __real@4014000000000000    0000000180014588     c1_untitled.obj
 0002:00000590       __real@4018000000000000    0000000180014590     c1_untitled.obj
 0002:00000598       __real@4020000000000000    0000000180014598     c1_untitled.obj
 0002:000005a0       __real@4024000000000000    00000001800145a0     c1_untitled.obj
 0002:000005a8       __real@4039000000000000    00000001800145a8     c1_untitled.obj
 0002:000005b0       __real@4042800000000000    00000001800145b0     c1_untitled.obj
 0002:000005b8       __real@4049000000000000    00000001800145b8     c1_untitled.obj
 0002:000005c0       __real@405bc00000000000    00000001800145c0     c1_untitled.obj
 0002:000005c8       __real@406f400000000000    00000001800145c8     c1_untitled.obj
 0002:000005d0       __real@41c0b1da87800000    00000001800145d0     c1_untitled.obj
 0002:000005d8       __real@41c397fc39800000    00000001800145d8     c1_untitled.obj
 0002:000005e0       __real@41c8cae282000000    00000001800145e0     c1_untitled.obj
 0002:000005e8       __real@41e72ec212a00000    00000001800145e8     c1_untitled.obj
 0002:000005f0       __xmm@80000000000000008000000000000000 00000001800145f0     c1_untitled.obj
 0002:00000600       DYNAMIC_DIMENSION_DEF      0000000180014600     untitled_sfun_registry.obj
 0002:00000620       _ssBadLevel2InputAccessMsg 0000000180014620     untitled_sfun_registry.obj
 0002:000007b0       _ssBadLevel2DirectFeedMsg  00000001800147b0     untitled_sfun_registry.obj
 0002:000008f0       _ssBadLevel2DirectFeedSolutionMsg 00000001800148f0     untitled_sfun_registry.obj
 0002:00000960       _ssBadLevel2ZeroDirectFeedMsg 0000000180014960     untitled_sfun_registry.obj
 0002:00000aa0       _ssBadLevel2ZeroDirectFeedMsg2 0000000180014aa0     untitled_sfun_registry.obj
 0002:00000b88       __real@0000000000000000    0000000180014b88     untitled_sfun_registry.obj
 0002:00000b90       __real@41602cbca0000000    0000000180014b90     untitled_sfun_registry.obj
 0002:00000b98       __real@bff0000000000000    0000000180014b98     untitled_sfun_registry.obj
 0002:00000bb0       _pDefaultRawDllMain        0000000180014bb0     MSVCRT:crtdll.obj
 0002:00000bb0       _pRawDllMain               0000000180014bb0     MSVCRT:crtdll.obj
 0002:00000bb8       ?ProcessDetach@NativeDll@<CrtImplementationDetails>@@0IB 0000000180014bb8     MSVCRT:initsect.obj
 0002:00000bbc       ?ProcessAttach@NativeDll@<CrtImplementationDetails>@@0IB 0000000180014bbc     MSVCRT:initsect.obj
 0002:00000bc0       ?ThreadAttach@NativeDll@<CrtImplementationDetails>@@0IB 0000000180014bc0     MSVCRT:initsect.obj
 0002:00000bc4       ?ThreadDetach@NativeDll@<CrtImplementationDetails>@@0IB 0000000180014bc4     MSVCRT:initsect.obj
 0002:00000bc8       ?ProcessVerifier@NativeDll@<CrtImplementationDetails>@@0IB 0000000180014bc8     MSVCRT:initsect.obj
 0002:00000bcc       ?value@?$integral_constant@_N$0A@@std@@2_NB 0000000180014bcc     MSVCRT:tncleanup.obj
 0002:00000bcd       ?value@?$integral_constant@_N$00@std@@2_NB 0000000180014bcd     MSVCRT:tncleanup.obj
 0002:00000bd0       ?value@?$_Sizeof@U_Nil@std@@U12@U12@U12@U12@U12@U12@U12@@std@@2_KB 0000000180014bd0     MSVCRT:tncleanup.obj
 0002:00000be0       _load_config_used          0000000180014be0     MSVCRT:loadcfg.obj
 0002:00000c50       __rtc_iaa                  0000000180014c50     MSVCRT:initsect.obj
 0002:00000c58       __rtc_izz                  0000000180014c58     MSVCRT:initsect.obj
 0002:00000c60       __rtc_taa                  0000000180014c60     MSVCRT:initsect.obj
 0002:00000c68       __rtc_tzz                  0000000180014c68     MSVCRT:initsect.obj
 0002:00001394       __IMPORT_DESCRIPTOR_sf_runtime 0000000180015394     sf_runtime:sf_runtime.dll
 0002:000013a8       __IMPORT_DESCRIPTOR_libmx  00000001800153a8     libmx:libmx.dll
 0002:000013bc       __IMPORT_DESCRIPTOR_libmex 00000001800153bc     libmex:libmex.dll
 0002:000013d0       __IMPORT_DESCRIPTOR_libut  00000001800153d0     libut:libut.dll
 0002:000013e4       __IMPORT_DESCRIPTOR_libmwmathutil 00000001800153e4     libmwmathutil:libmwmathutil.dll
 0002:000013f8       __IMPORT_DESCRIPTOR_MSVCR110 00000001800153f8     MSVCRT:MSVCR110.dll
 0002:0000140c       __IMPORT_DESCRIPTOR_KERNEL32 000000018001540c     kernel32:KERNEL32.dll
 0002:00001420       __NULL_IMPORT_DESCRIPTOR   0000000180015420     sf_runtime:sf_runtime.dll
 0003:00003288       DYNAMIC_DIMENSION          000000018001a288     untitled_sfun_registry.obj
 0003:00003f80       __security_cookie          000000018001af80     MSVCRT:gs_cookie.obj
 0003:00003f88       __security_cookie_complement 000000018001af88     MSVCRT:gs_cookie.obj
 0003:00003f90       _fltused                   000000018001af90     MSVCRT:dllsupp.obj
 0003:00003f94       __native_dllmain_reason    000000018001af94     MSVCRT:natstart.obj
 0003:00003fc8       sfGlobalDebugInstanceStruct 000000018001afc8     untitled_sfun_registry.obj
 0003:00004628       ?__type_info_root_node@@3U__type_info_node@@A 000000018001b628     MSVCRT:tncleanup.obj
 0003:00004638       _untitledMachineNumber_    000000018001b638     <common>
 0003:00004640       __native_startup_lock      000000018001b640     <common>
 0003:00004648       __native_startup_state     000000018001b648     <common>
 0003:00004650       __onexitend                000000018001b650     <common>
 0003:00004658       __onexitbegin              000000018001b658     <common>
 0003:00004660       __dyn_tls_init_callback    000000018001b660     <common>

 entry point at        0001:00012874

 Static symbols

 0000:00000000       .debug$S                   0000000180000000     kernel32:KERNEL32.dll
 0000:00000000       .debug$S                   0000000180000000     kernel32:KERNEL32.dll
 0000:00000000       .debug$S                   0000000180000000     kernel32:KERNEL32.dll
 0000:00000000       .debug$S                   0000000180000000     kernel32:KERNEL32.dll
 0000:00000000       .debug$S                   0000000180000000     kernel32:KERNEL32.dll
 0000:00000000       .debug$S                   0000000180000000     kernel32:KERNEL32.dll
 0000:00000000       .debug$S                   0000000180000000     kernel32:KERNEL32.dll
 0000:00000000       .debug$S                   0000000180000000     kernel32:KERNEL32.dll
 0000:00000000       .debug$S                   0000000180000000     kernel32:KERNEL32.dll
 0000:00000000       .debug$S                   0000000180000000     sf_runtime:sf_runtime.dll
 0000:00000000       .debug$S                   0000000180000000     MSVCRT:MSVCR110.dll
 0000:00000000       .debug$S                   0000000180000000     MSVCRT:MSVCR110.dll
 0000:00000000       .debug$S                   0000000180000000     MSVCRT:MSVCR110.dll
 0000:00000000       .debug$S                   0000000180000000     MSVCRT:MSVCR110.dll
 0000:00000000       .debug$S                   0000000180000000     MSVCRT:MSVCR110.dll
 0000:00000000       .debug$S                   0000000180000000     MSVCRT:MSVCR110.dll
 0000:00000000       .debug$S                   0000000180000000     MSVCRT:MSVCR110.dll
 0000:00000000       .debug$S                   0000000180000000     MSVCRT:MSVCR110.dll
 0000:00000000       .debug$S                   0000000180000000     MSVCRT:MSVCR110.dll
 0000:00000000       .debug$S                   0000000180000000     MSVCRT:MSVCR110.dll
 0000:00000000       .debug$S                   0000000180000000     MSVCRT:MSVCR110.dll
 0000:00000000       .debug$S                   0000000180000000     MSVCRT:MSVCR110.dll
 0000:00000000       .debug$S                   0000000180000000     MSVCRT:MSVCR110.dll
 0000:00000000       .debug$S                   0000000180000000     MSVCRT:MSVCR110.dll
 0000:00000000       .debug$S                   0000000180000000     MSVCRT:MSVCR110.dll
 0000:00000000       .debug$S                   0000000180000000     MSVCRT:MSVCR110.dll
 0000:00000000       .debug$S                   0000000180000000     MSVCRT:MSVCR110.dll
 0000:00000000       .debug$S                   0000000180000000     MSVCRT:MSVCR110.dll
 0000:00000000       .debug$S                   0000000180000000     MSVCRT:MSVCR110.dll
 0000:00000000       .debug$S                   0000000180000000     MSVCRT:MSVCR110.dll
 0000:00000000       .debug$S                   0000000180000000     MSVCRT:MSVCR110.dll
 0000:00000000       .debug$S                   0000000180000000     MSVCRT:MSVCR110.dll
 0000:00000000       .debug$S                   0000000180000000     MSVCRT:MSVCR110.dll
 0000:00000000       .debug$S                   0000000180000000     MSVCRT:MSVCR110.dll
 0000:00000000       .debug$S                   0000000180000000     MSVCRT:MSVCR110.dll
 0000:00000000       .debug$S                   0000000180000000     sf_runtime:sf_runtime.dll
 0000:00000000       .debug$S                   0000000180000000     sf_runtime:sf_runtime.dll
 0000:00000000       .debug$S                   0000000180000000     sf_runtime:sf_runtime.dll
 0000:00000000       .debug$S                   0000000180000000     sf_runtime:sf_runtime.dll
 0000:00000000       .debug$S                   0000000180000000     sf_runtime:sf_runtime.dll
 0000:00000000       .debug$S                   0000000180000000     sf_runtime:sf_runtime.dll
 0000:00000000       .debug$S                   0000000180000000     sf_runtime:sf_runtime.dll
 0000:00000000       .debug$S                   0000000180000000     sf_runtime:sf_runtime.dll
 0000:00000000       .debug$S                   0000000180000000     sf_runtime:sf_runtime.dll
 0000:00000000       .debug$S                   0000000180000000     sf_runtime:sf_runtime.dll
 0000:00000000       .debug$S                   0000000180000000     sf_runtime:sf_runtime.dll
 0000:00000000       .debug$S                   0000000180000000     sf_runtime:sf_runtime.dll
 0000:00000000       .debug$S                   0000000180000000     sf_runtime:sf_runtime.dll
 0000:00000000       .debug$S                   0000000180000000     sf_runtime:sf_runtime.dll
 0000:00000000       .debug$S                   0000000180000000     sf_runtime:sf_runtime.dll
 0000:00000000       .debug$S                   0000000180000000     sf_runtime:sf_runtime.dll
 0000:00000000       .debug$S                   0000000180000000     sf_runtime:sf_runtime.dll
 0000:00000000       .debug$S                   0000000180000000     sf_runtime:sf_runtime.dll
 0000:00000000       .debug$S                   0000000180000000     sf_runtime:sf_runtime.dll
 0000:00000000       .debug$S                   0000000180000000     sf_runtime:sf_runtime.dll
 0000:00000000       .debug$S                   0000000180000000     sf_runtime:sf_runtime.dll
 0000:00000000       .debug$S                   0000000180000000     sf_runtime:sf_runtime.dll
 0000:00000000       .debug$S                   0000000180000000     sf_runtime:sf_runtime.dll
 0000:00000000       .debug$S                   0000000180000000     sf_runtime:sf_runtime.dll
 0000:00000000       .debug$S                   0000000180000000     sf_runtime:sf_runtime.dll
 0000:00000000       .debug$S                   0000000180000000     sf_runtime:sf_runtime.dll
 0000:00000000       .debug$S                   0000000180000000     sf_runtime:sf_runtime.dll
 0000:00000000       .debug$S                   0000000180000000     sf_runtime:sf_runtime.dll
 0000:00000000       .debug$S                   0000000180000000     sf_runtime:sf_runtime.dll
 0000:00000000       .debug$S                   0000000180000000     sf_runtime:sf_runtime.dll
 0000:00000000       .debug$S                   0000000180000000     sf_runtime:sf_runtime.dll
 0000:00000000       .debug$S                   0000000180000000     sf_runtime:sf_runtime.dll
 0000:00000000       .debug$S                   0000000180000000     sf_runtime:sf_runtime.dll
 0000:00000000       .debug$S                   0000000180000000     sf_runtime:sf_runtime.dll
 0000:00000000       .debug$S                   0000000180000000     sf_runtime:sf_runtime.dll
 0000:00000000       .debug$S                   0000000180000000     sf_runtime:sf_runtime.dll
 0000:00000000       .debug$S                   0000000180000000     libmwmathutil:libmwmathutil.dll
 0000:00000000       .debug$S                   0000000180000000     libmwmathutil:libmwmathutil.dll
 0000:00000000       .debug$S                   0000000180000000     libmwmathutil:libmwmathutil.dll
 0000:00000000       .debug$S                   0000000180000000     libmwmathutil:libmwmathutil.dll
 0000:00000000       .debug$S                   0000000180000000     sf_runtime:sf_runtime.dll
 0000:00000000       .debug$S                   0000000180000000     libut:libut.dll
 0000:00000000       .debug$S                   0000000180000000     libut:libut.dll
 0000:00000000       .debug$S                   0000000180000000     sf_runtime:sf_runtime.dll
 0000:00000000       .debug$S                   0000000180000000     libmex:libmex.dll
 0000:00000000       .debug$S                   0000000180000000     libmex:libmex.dll
 0000:00000000       .debug$S                   0000000180000000     libmex:libmex.dll
 0000:00000000       .debug$S                   0000000180000000     libmex:libmex.dll
 0000:00000000       .debug$S                   0000000180000000     libmex:libmex.dll
 0000:00000000       .debug$S                   0000000180000000     libmex:libmex.dll
 0000:00000000       .debug$S                   0000000180000000     libmex:libmex.dll
 0000:00000000       .debug$S                   0000000180000000     sf_runtime:sf_runtime.dll
 0000:00000000       .debug$S                   0000000180000000     libmx:libmx.dll
 0000:00000000       .debug$S                   0000000180000000     libmx:libmx.dll
 0000:00000000       .debug$S                   0000000180000000     libmx:libmx.dll
 0000:00000000       .debug$S                   0000000180000000     libmx:libmx.dll
 0000:00000000       .debug$S                   0000000180000000     libmx:libmx.dll
 0000:00000000       .debug$S                   0000000180000000     libmx:libmx.dll
 0000:00000000       .debug$S                   0000000180000000     libmx:libmx.dll
 0000:00000000       .debug$S                   0000000180000000     libmx:libmx.dll
 0000:00000000       .debug$S                   0000000180000000     libmx:libmx.dll
 0000:00000000       .debug$S                   0000000180000000     libmx:libmx.dll
 0000:00000000       .debug$S                   0000000180000000     libmx:libmx.dll
 0000:00000000       .debug$S                   0000000180000000     libmx:libmx.dll
 0000:00000000       .debug$S                   0000000180000000     libmx:libmx.dll
 0000:00000000       .debug$S                   0000000180000000     libmx:libmx.dll
 0000:00000000       .debug$S                   0000000180000000     sf_runtime:sf_runtime.dll
 0000:00000000       .debug$S                   0000000180000000     sf_runtime:sf_runtime.dll
 0000:00000000       .debug$S                   0000000180000000     sf_runtime:sf_runtime.dll
 0000:00000000       .debug$S                   0000000180000000     sf_runtime:sf_runtime.dll
 0000:00000000       .debug$S                   0000000180000000     sf_runtime:sf_runtime.dll
 0000:00000000       .debug$S                   0000000180000000     sf_runtime:sf_runtime.dll
 0000:00000000       .debug$S                   0000000180000000     sf_runtime:sf_runtime.dll
 0000:00000000       .debug$S                   0000000180000000     sf_runtime:sf_runtime.dll
 0000:00000000       .debug$S                   0000000180000000     sf_runtime:sf_runtime.dll
 0000:00000000       .debug$S                   0000000180000000     sf_runtime:sf_runtime.dll
 0000:00000000       .debug$S                   0000000180000000     sf_runtime:sf_runtime.dll
 0000:00000000       .debug$S                   0000000180000000     sf_runtime:sf_runtime.dll
 0000:00000000       .debug$S                   0000000180000000     sf_runtime:sf_runtime.dll
 0000:00000000       .debug$S                   0000000180000000     sf_runtime:sf_runtime.dll
 0000:00000000       .debug$S                   0000000180000000     sf_runtime:sf_runtime.dll
 0000:00000000       .debug$S                   0000000180000000     sf_runtime:sf_runtime.dll
 0000:00000000       .debug$S                   0000000180000000     sf_runtime:sf_runtime.dll
 0000:00000000       .debug$S                   0000000180000000     sf_runtime:sf_runtime.dll
 0000:00000000       .debug$S                   0000000180000000     sf_runtime:sf_runtime.dll
 0000:00000000       .debug$S                   0000000180000000     sf_runtime:sf_runtime.dll
 0000:00000000       .debug$S                   0000000180000000     sf_runtime:sf_runtime.dll
 0000:00000000       .debug$S                   0000000180000000     sf_runtime:sf_runtime.dll
 0000:00000000       .debug$S                   0000000180000000     sf_runtime:sf_runtime.dll
 0000:00000000       .debug$S                   0000000180000000     sf_runtime:sf_runtime.dll
 0000:00000000       .debug$S                   0000000180000000     sf_runtime:sf_runtime.dll
 0000:00000000       .debug$S                   0000000180000000     sf_runtime:sf_runtime.dll
 0000:00000000       .debug$S                   0000000180000000     sf_runtime:sf_runtime.dll
 0000:00000000       .debug$S                   0000000180000000     sf_runtime:sf_runtime.dll
 0000:00000000       .debug$S                   0000000180000000     sf_runtime:sf_runtime.dll
 0000:00000000       .debug$S                   0000000180000000     sf_runtime:sf_runtime.dll
 0000:00000000       .debug$S                   0000000180000000     libmx:libmx.dll
 0000:00000000       .debug$S                   0000000180000000     libmx:libmx.dll
 0000:00000000       .debug$S                   0000000180000000     libmx:libmx.dll
 0000:00000000       .debug$S                   0000000180000000     libmx:libmx.dll
 0000:00000000       .debug$S                   0000000180000000     libmx:libmx.dll
 0000:00000000       .debug$S                   0000000180000000     libmx:libmx.dll
 0000:00000000       .debug$S                   0000000180000000     libmx:libmx.dll
 0001:000013e0       initialize_c1_untitled     00000001800023e0 f   c1_untitled.obj
 0001:00001430       initialize_params_c1_untitled 0000000180002430 f   c1_untitled.obj
 0001:00001440       enable_c1_untitled         0000000180002440 f   c1_untitled.obj
 0001:00001470       disable_c1_untitled        0000000180002470 f   c1_untitled.obj
 0001:000014a0       c1_update_debugger_state_c1_untitled 00000001800024a0 f   c1_untitled.obj
 0001:000014b0       get_sim_state_c1_untitled  00000001800024b0 f   c1_untitled.obj
 0001:00001680       set_sim_state_c1_untitled  0000000180002680 f   c1_untitled.obj
 0001:00001790       finalize_c1_untitled       0000000180002790 f   c1_untitled.obj
 0001:000017a0       sf_gateway_c1_untitled     00000001800027a0 f   c1_untitled.obj
 0001:00001a30       c1_chartstep_c1_untitled   0000000180002a30 f   c1_untitled.obj
 0001:00004a60       initSimStructsc1_untitled  0000000180005a60 f   c1_untitled.obj
 0001:00004a70       init_script_number_translation 0000000180005a70 f   c1_untitled.obj
 0001:00004ac0       c1_sf_marshallOut          0000000180005ac0 f   c1_untitled.obj
 0001:00004c10       c1_emlrt_marshallIn        0000000180005c10 f   c1_untitled.obj
 0001:00004c80       c1_b_emlrt_marshallIn      0000000180005c80 f   c1_untitled.obj
 0001:00004d70       c1_sf_marshallIn           0000000180005d70 f   c1_untitled.obj
 0001:00004e70       c1_b_sf_marshallOut        0000000180005e70 f   c1_untitled.obj
 0001:00004fc0       c1_c_sf_marshallOut        0000000180005fc0 f   c1_untitled.obj
 0001:00005070       c1_c_emlrt_marshallIn      0000000180006070 f   c1_untitled.obj
 0001:00005100       c1_b_sf_marshallIn         0000000180006100 f   c1_untitled.obj
 0001:000051a0       c1_info_helper             00000001800061a0 f   c1_untitled.obj
 0001:000090f0       c1_emlrt_marshallOut       000000018000a0f0 f   c1_untitled.obj
 0001:00009180       c1_b_emlrt_marshallOut     000000018000a180 f   c1_untitled.obj
 0001:000091f0       c1_power                   000000018000a1f0 f   c1_untitled.obj
 0001:00009250       c1_eml_scalar_eg           000000018000a250 f   c1_untitled.obj
 0001:00009260       c1_rdivide                 000000018000a260 f   c1_untitled.obj
 0001:000092c0       c1_e_emlrt_marshallIn      000000018000a2c0 f   c1_untitled.obj
 0001:00009320       c1_f_emlrt_marshallIn      000000018000a320 f   c1_untitled.obj
 0001:000093b0       init_dsm_address_info      000000018000a3b0 f   c1_untitled.obj
 0001:000093c0       init_simulink_io_address   000000018000a3c0 f   c1_untitled.obj
 0001:00009bf0       sf_get_sim_state_info_c1_untitled 000000018000abf0 f   c1_untitled.obj
 0001:00009cc0       chart_debug_initialization 000000018000acc0 f   c1_untitled.obj
 0001:0000a730       sf_get_instance_specialization 000000018000b730 f   c1_untitled.obj
 0001:0000a740       sf_opaque_initialize_c1_untitled 000000018000b740 f   c1_untitled.obj
 0001:0000a780       sf_opaque_enable_c1_untitled 000000018000b780 f   c1_untitled.obj
 0001:0000a7a0       sf_opaque_disable_c1_untitled 000000018000b7a0 f   c1_untitled.obj
 0001:0000a7c0       sf_opaque_gateway_c1_untitled 000000018000b7c0 f   c1_untitled.obj
 0001:0000a7e0       sf_opaque_get_sim_state_c1_untitled 000000018000b7e0 f   c1_untitled.obj
 0001:0000a830       sf_opaque_set_sim_state_c1_untitled 000000018000b830 f   c1_untitled.obj
 0001:0000a880       sf_opaque_terminate_c1_untitled 000000018000b880 f   c1_untitled.obj
 0001:0000a920       sf_opaque_init_subchart_simstructs 000000018000b920 f   c1_untitled.obj
 0001:0000a940       mdlProcessParameters_c1_untitled 000000018000b940 f   c1_untitled.obj
 0001:0000aa20       mdlSetWorkWidths_c1_untitled 000000018000ba20 f   c1_untitled.obj
 0001:0000af70       mdlRTW_c1_untitled         000000018000bf70 f   c1_untitled.obj
 0001:0000afb0       mdlStart_c1_untitled       000000018000bfb0 f   c1_untitled.obj
 0001:0000c304       $LN107                     000000018000d304     untitled_sfun_registry.obj
 0001:0000d634       $LN17                      000000018000e634     untitled_sfun_registry.obj
 0001:0000dbbc       $LN26                      000000018000ebbc     untitled_sfun_registry.obj
 0001:0000e2a4       $LN23                      000000018000f2a4     untitled_sfun_registry.obj
 0001:0000e880       $LN26                      000000018000f880     untitled_sfun_registry.obj
 0001:00010740       sf_debug_api_wrapper       0000000180011740 f   untitled_sfun_registry.obj
 0001:00010790       ProcessMexSfunctionCmdLineCall 0000000180011790 f   untitled_sfun_registry.obj
 0001:00010ac0       getChartInfoFromSimStruct  0000000180011ac0 f   untitled_sfun_registry.obj
 0001:00010b80       mdlSetWorkWidths           0000000180011b80 f   untitled_sfun_registry.obj
 0001:00010bb0       mdlProcessParameters       0000000180011bb0 f   untitled_sfun_registry.obj
 0001:00010be0       mdl_start_processing       0000000180011be0 f   untitled_sfun_registry.obj
 0001:00010ca0       mdl_terminate_processing   0000000180011ca0 f   untitled_sfun_registry.obj
 0001:00010d20       mdlStart                   0000000180011d20 f   untitled_sfun_registry.obj
 0001:00010d50       mdlTerminate               0000000180011d50 f   untitled_sfun_registry.obj
 0001:00010d80       mdlInitializeSizes         0000000180011d80 f   untitled_sfun_registry.obj
 0001:00010db0       mdlInitializeSampleTimes   0000000180011db0 f   untitled_sfun_registry.obj
 0001:00010de0       mdl_outputs_continuous_legacy 0000000180011de0 f   untitled_sfun_registry.obj
 0001:00010ee0       mdl_outputs_processing     0000000180011ee0 f   untitled_sfun_registry.obj
 0001:00010fe0       mdl_zeroCrossings_processing 0000000180011fe0 f   untitled_sfun_registry.obj
 0001:00011020       mdlZeroCrossings           0000000180012020 f   untitled_sfun_registry.obj
 0001:00011050       mdl_derivatives_processing 0000000180012050 f   untitled_sfun_registry.obj
 0001:000110a0       mdlDerivatives             00000001800120a0 f   untitled_sfun_registry.obj
 0001:000110d0       mdl_initialize_conditions_processing 00000001800120d0 f   untitled_sfun_registry.obj
 0001:00011120       mdlInitializeConditions    0000000180012120 f   untitled_sfun_registry.obj
 0001:00011150       mdl_ext_mode_exec_processing 0000000180012150 f   untitled_sfun_registry.obj
 0001:00011190       mdlExtModeExec             0000000180012190 f   untitled_sfun_registry.obj
 0001:000111c0       mdlRTW                     00000001800121c0 f   untitled_sfun_registry.obj
 0001:00011200       mdl_enable_processing      0000000180012200 f   untitled_sfun_registry.obj
 0001:00011240       mdlEnable                  0000000180012240 f   untitled_sfun_registry.obj
 0001:00011270       mdl_disable_processing     0000000180012270 f   untitled_sfun_registry.obj
 0001:000112b0       mdlDisable                 00000001800122b0 f   untitled_sfun_registry.obj
 0001:000112e0       mdlOutputs                 00000001800122e0 f   untitled_sfun_registry.obj
 0001:000114b0       mdlGetTimeOfNextVarHit     00000001800124b0 f   untitled_sfun_registry.obj
 0001:00011500       _RegNumInputPortsCB        0000000180012500 f   untitled_sfun_registry.obj
 0001:00011580       _RegNumOutputPortsCB       0000000180012580 f   untitled_sfun_registry.obj
 0001:00011600       _CreateSimStruct           0000000180012600 f   untitled_sfun_registry.obj
 0001:00011790       _ssFatalError              0000000180012790 f   untitled_sfun_registry.obj
 0001:00011840       _ProcessMexSfunctionCmdLineCall 0000000180012840 f   untitled_sfun_registry.obj
 0001:00012560       $$000000                   0000000180013560     MSVCRT:amdsecgs.obj
 0001:000125bc       pre_c_init                 00000001800135bc f   MSVCRT:crtdll.obj
 0001:000128b4       __DllMainCRTStartup        00000001800138b4 f   MSVCRT:crtdll.obj
 0001:00012dd0       __DllMainCRTStartup$filt$0 0000000180013dd0 f   MSVCRT:crtdll.obj
 0001:00012df5       __DllMainCRTStartup$fin$1  0000000180013df5 f   MSVCRT:crtdll.obj
 0001:00012e10       _IsNonwritableInCurrentImage$filt$0 0000000180013e10 f   MSVCRT:pesect.obj
 0001:00012e30       _onexit$fin$0              0000000180013e30 f   MSVCRT:atonexit.obj
 0002:000004a0       pcinit                     00000001800144a0     MSVCRT:crtdll.obj
 0002:000004a8       pinit                      00000001800144a8     MSVCRT:atonexit.obj
 0002:00000ba0       GS_ExceptionPointers       0000000180014ba0     MSVCRT:gs_report.obj
 0002:00000c70       $unwind$load_untitled_optimization_info 0000000180014c70     untitled_sfun.obj
 0002:00000c78       $unwind$unload_untitled_optimization_info 0000000180014c78     untitled_sfun.obj
 0002:00000c80       $unwind$sf_untitled_method_dispatcher 0000000180014c80     untitled_sfun.obj
 0002:00000c88       $unwind$sf_untitled_uses_exported_functions 0000000180014c88     untitled_sfun.obj
 0002:00000c90       $unwind$sf_untitled_process_check_sum_call 0000000180014c90     untitled_sfun.obj
 0002:00000ca0       $unwind$sf_untitled_autoinheritance_info 0000000180014ca0     untitled_sfun.obj
 0002:00000cb0       $unwind$sf_untitled_get_eml_resolved_functions_info 0000000180014cb0     untitled_sfun.obj
 0002:00000cc0       $unwind$sf_untitled_third_party_uses_info 0000000180014cc0     untitled_sfun.obj
 0002:00000cd0       $unwind$sf_untitled_jit_fallback_info 0000000180014cd0     untitled_sfun.obj
 0002:00000ce0       $unwind$sf_untitled_updateBuildInfo_args_info 0000000180014ce0     untitled_sfun.obj
 0002:00000cf0       $unwind$sf_untitled_get_post_codegen_info 0000000180014cf0     untitled_sfun.obj
 0002:00000d00       $unwind$untitled_debug_initialize 0000000180014d00     untitled_sfun.obj
 0002:00000d08       $unwind$sf_c1_untitled_get_eml_resolved_functions_info 0000000180014d08     c1_untitled.obj
 0002:00000d10       $unwind$sf_c1_untitled_get_check_sum 0000000180014d10     c1_untitled.obj
 0002:00000d18       $unwind$c1_untitled_method_dispatcher 0000000180014d18     c1_untitled.obj
 0002:00000d20       $unwind$initialize_c1_untitled 0000000180014d20     c1_untitled.obj
 0002:00000d28       $unwind$enable_c1_untitled 0000000180014d28     c1_untitled.obj
 0002:00000d30       $unwind$disable_c1_untitled 0000000180014d30     c1_untitled.obj
 0002:00000d38       $unwind$get_sim_state_c1_untitled 0000000180014d38     c1_untitled.obj
 0002:00000d48       $unwind$set_sim_state_c1_untitled 0000000180014d48     c1_untitled.obj
 0002:00000d58       $unwind$sf_gateway_c1_untitled 0000000180014d58     c1_untitled.obj
 0002:00000d60       $unwind$c1_chartstep_c1_untitled 0000000180014d60     c1_untitled.obj
 0002:00000d70       $unwind$init_script_number_translation 0000000180014d70     c1_untitled.obj
 0002:00000d78       $unwind$c1_sf_marshallOut  0000000180014d78     c1_untitled.obj
 0002:00000d88       $unwind$c1_emlrt_marshallIn 0000000180014d88     c1_untitled.obj
 0002:00000d90       $unwind$c1_b_emlrt_marshallIn 0000000180014d90     c1_untitled.obj
 0002:00000da0       $unwind$c1_sf_marshallIn   0000000180014da0     c1_untitled.obj
 0002:00000db0       $unwind$c1_b_sf_marshallOut 0000000180014db0     c1_untitled.obj
 0002:00000dc0       $unwind$c1_c_sf_marshallOut 0000000180014dc0     c1_untitled.obj
 0002:00000dc8       $unwind$c1_c_emlrt_marshallIn 0000000180014dc8     c1_untitled.obj
 0002:00000dd0       $unwind$c1_b_sf_marshallIn 0000000180014dd0     c1_untitled.obj
 0002:00000dd8       $unwind$c1_info_helper     0000000180014dd8     c1_untitled.obj
 0002:00000de0       $unwind$c1_emlrt_marshallOut 0000000180014de0     c1_untitled.obj
 0002:00000de8       $unwind$c1_b_emlrt_marshallOut 0000000180014de8     c1_untitled.obj
 0002:00000df0       $unwind$c1_power           0000000180014df0     c1_untitled.obj
 0002:00000df8       $unwind$c1_rdivide         0000000180014df8     c1_untitled.obj
 0002:00000e00       $unwind$c1_e_emlrt_marshallIn 0000000180014e00     c1_untitled.obj
 0002:00000e08       $unwind$c1_f_emlrt_marshallIn 0000000180014e08     c1_untitled.obj
 0002:00000e10       $unwind$init_simulink_io_address 0000000180014e10     c1_untitled.obj
 0002:00000e18       $unwind$sf_c1_untitled_get_post_codegen_info 0000000180014e18     c1_untitled.obj
 0002:00000e20       $unwind$sf_c1_untitled_get_autoinheritance_info 0000000180014e20     c1_untitled.obj
 0002:00000e28       $unwind$sf_c1_untitled_third_party_uses_info 0000000180014e28     c1_untitled.obj
 0002:00000e30       $unwind$sf_c1_untitled_jit_fallback_info 0000000180014e30     c1_untitled.obj
 0002:00000e38       $unwind$sf_c1_untitled_updateBuildInfo_args_info 0000000180014e38     c1_untitled.obj
 0002:00000e40       $unwind$sf_get_sim_state_info_c1_untitled 0000000180014e40     c1_untitled.obj
 0002:00000e48       $unwind$chart_debug_initialization 0000000180014e48     c1_untitled.obj
 0002:00000e50       $unwind$sf_opaque_initialize_c1_untitled 0000000180014e50     c1_untitled.obj
 0002:00000e58       $unwind$sf_opaque_enable_c1_untitled 0000000180014e58     c1_untitled.obj
 0002:00000e60       $unwind$sf_opaque_disable_c1_untitled 0000000180014e60     c1_untitled.obj
 0002:00000e68       $unwind$sf_opaque_gateway_c1_untitled 0000000180014e68     c1_untitled.obj
 0002:00000e70       $unwind$sf_opaque_get_sim_state_c1_untitled 0000000180014e70     c1_untitled.obj
 0002:00000e78       $unwind$sf_opaque_set_sim_state_c1_untitled 0000000180014e78     c1_untitled.obj
 0002:00000e80       $unwind$sf_opaque_terminate_c1_untitled 0000000180014e80     c1_untitled.obj
 0002:00000e88       $unwind$sf_opaque_init_subchart_simstructs 0000000180014e88     c1_untitled.obj
 0002:00000e90       $unwind$mdlProcessParameters_c1_untitled 0000000180014e90     c1_untitled.obj
 0002:00000e98       $unwind$mdlSetWorkWidths_c1_untitled 0000000180014e98     c1_untitled.obj
 0002:00000ea0       $unwind$mdlRTW_c1_untitled 0000000180014ea0     c1_untitled.obj
 0002:00000ea8       $unwind$mdlStart_c1_untitled 0000000180014ea8     c1_untitled.obj
 0002:00000eb0       $unwind$mexFunction        0000000180014eb0     untitled_sfun_registry.obj
 0002:00000eb8       $unwind$_ssSetInputPortDirectFeedThroughFcn 0000000180014eb8     untitled_sfun_registry.obj
 0002:00000ec0       $unwind$_ssGetInputPortSignalPtrsFcn 0000000180014ec0     untitled_sfun_registry.obj
 0002:00000ec8       $unwind$_ssGetInputPortSignalFcn 0000000180014ec8     untitled_sfun_registry.obj
 0002:00000ed0       $unwind$_ssSetInputPortReusableFcn 0000000180014ed0     untitled_sfun_registry.obj
 0002:00000ee0       $unwind$_ssSetOutputPortReusableFcn 0000000180014ee0     untitled_sfun_registry.obj
 0002:00000ef0       $unwind$ssGetIsZeroCrossControlDisabled 0000000180014ef0     untitled_sfun_registry.obj
 0002:00000ef8       $unwind$ssSetIsInputPortUsedForContZcSignal 0000000180014ef8     untitled_sfun_registry.obj
 0002:00000f00       $unwind$ssSetZcSignalIsZcElementDisc 0000000180014f00     untitled_sfun_registry.obj
 0002:00000f10       $unwind$ssSetZcSignalName  0000000180014f10     untitled_sfun_registry.obj
 0002:00000f18       $unwind$ssSetZcSignalWidth 0000000180014f18     untitled_sfun_registry.obj
 0002:00000f20       $unwind$ssSetZcSignalZcEventType 0000000180014f20     untitled_sfun_registry.obj
 0002:00000f28       $unwind$ssSetZcSignalType  0000000180014f28     untitled_sfun_registry.obj
 0002:00000f30       $unwind$ssSetZcSignalZcTol 0000000180014f30     untitled_sfun_registry.obj
 0002:00000f38       $unwind$ssSetZcSignalNeedsEventNotification 0000000180014f38     untitled_sfun_registry.obj
 0002:00000f40       $unwind$ssCreateAndAddZcSignalInfo 0000000180014f40     untitled_sfun_registry.obj
 0002:00000f48       $unwind$ssCloneAndAddZcSignalInfo 0000000180014f48     untitled_sfun_registry.obj
 0002:00000f50       $unwind$ssGetNumZcSignals  0000000180014f50     untitled_sfun_registry.obj
 0002:00000f58       $unwind$ssGetZcSignalVector 0000000180014f58     untitled_sfun_registry.obj
 0002:00000f60       $unwind$ssGetZcSignalName  0000000180014f60     untitled_sfun_registry.obj
 0002:00000f68       $unwind$ssGetZcSignalWidth 0000000180014f68     untitled_sfun_registry.obj
 0002:00000f70       $unwind$ssGetZcSignalZcEventType 0000000180014f70     untitled_sfun_registry.obj
 0002:00000f78       $unwind$ssGetZcSignalZcEvents 0000000180014f78     untitled_sfun_registry.obj
 0002:00000f80       $unwind$ssGetZcSignalType  0000000180014f80     untitled_sfun_registry.obj
 0002:00000f88       $unwind$ssGetZcSignalZcTol 0000000180014f88     untitled_sfun_registry.obj
 0002:00000f90       $unwind$ssGetZcSignalNeedsEventNotification 0000000180014f90     untitled_sfun_registry.obj
 0002:00000f98       $unwind$ssGetZcSignalIsZcElementDisc 0000000180014f98     untitled_sfun_registry.obj
 0002:00000fa8       $unwind$ssGetIsInputPortElementContinuous 0000000180014fa8     untitled_sfun_registry.obj
 0002:00000fb8       $unwind$ssGetDTypeIdFromMxArray 0000000180014fb8     untitled_sfun_registry.obj
 0002:00000fc0       $unwind$ssWriteRTWStr      0000000180014fc0     untitled_sfun_registry.obj
 0002:00000fc8       $unwind$ssWriteRTWNameValuePair 0000000180014fc8     untitled_sfun_registry.obj
 0002:00000fd0       $unwind$ssWriteRTWParamSettings 0000000180014fd0     untitled_sfun_registry.obj
 0002:00000fd8       $unwind$ssWriteRTWParameters 0000000180014fd8     untitled_sfun_registry.obj
 0002:00000fe0       $unwind$ssWriteRTWWorkVect 0000000180014fe0     untitled_sfun_registry.obj
 0002:00000ff4       $unwind$ssWriteRTWMxVectParam 0000000180014ff4     untitled_sfun_registry.obj
 0002:00000ffc       $unwind$ssWriteRTWMx2dMatParam 0000000180014ffc     untitled_sfun_registry.obj
 0002:00001004       $unwind$_ssSetInputPortMatrixDimensions 0000000180015004     untitled_sfun_registry.obj
 0002:00001010       $unwind$_ssSetOutputPortMatrixDimensions 0000000180015010     untitled_sfun_registry.obj
 0002:0000101c       $unwind$_ssSetInputPortVectorDimension 000000018001501c     untitled_sfun_registry.obj
 0002:00001028       $unwind$_ssSetOutputPortVectorDimension 0000000180015028     untitled_sfun_registry.obj
 0002:00001034       $unwind$ssIsRunTimeParamTunable 0000000180015034     untitled_sfun_registry.obj
 0002:0000103c       $unwind$ssGetSFuncBlockHandle 000000018001503c     untitled_sfun_registry.obj
 0002:00001044       $unwind$_ssGetCurrentInputPortWidth 0000000180015044     untitled_sfun_registry.obj
 0002:0000104c       $unwind$_ssGetCurrentOutputPortWidth 000000018001504c     untitled_sfun_registry.obj
 0002:00001054       $unwind$_ssGetCallSystemNumFcnCallDestinations 0000000180015054     untitled_sfun_registry.obj
 0002:0000105c       $unwind$ssWarning          000000018001505c     untitled_sfun_registry.obj
 0002:00001070       $unwind$_ssGetAbsTol       0000000180015070     untitled_sfun_registry.obj
 0002:00001078       $unwind$sf_process_check_sum_call 0000000180015078     untitled_sfun_registry.obj
 0002:00001080       $unwind$sf_process_machine_uses_exported_functions_call 0000000180015080     untitled_sfun_registry.obj
 0002:00001090       $unwind$sf_process_autoinheritance_call 0000000180015090     untitled_sfun_registry.obj
 0002:000010a0       $unwind$sf_process_get_third_party_uses_info_call 00000001800150a0     untitled_sfun_registry.obj
 0002:000010b0       $unwind$sf_process_get_jit_fallback_info_call 00000001800150b0     untitled_sfun_registry.obj
 0002:000010c0       $unwind$sf_process_get_updateBuildInfo_args_info_call 00000001800150c0     untitled_sfun_registry.obj
 0002:000010d0       $unwind$sf_process_get_eml_resolved_functions_info_call 00000001800150d0     untitled_sfun_registry.obj
 0002:000010e0       $unwind$sf_process_get_post_codegen_info 00000001800150e0     untitled_sfun_registry.obj
 0002:000010f0       $unwind$sf_mex_unlock_call 00000001800150f0     untitled_sfun_registry.obj
 0002:00001100       $unwind$sf_debug_api_wrapper 0000000180015100     untitled_sfun_registry.obj
 0002:00001108       $unwind$ProcessMexSfunctionCmdLineCall 0000000180015108     untitled_sfun_registry.obj
 0002:00001110       $unwind$sf_machine_global_initializer_called 0000000180015110     untitled_sfun_registry.obj
 0002:00001118       $unwind$sf_machine_global_method_dispatcher 0000000180015118     untitled_sfun_registry.obj
 0002:00001120       $unwind$sf_machine_global_terminator 0000000180015120     untitled_sfun_registry.obj
 0002:00001128       $unwind$sf_register_machine_exported_symbols 0000000180015128     untitled_sfun_registry.obj
 0002:00001130       $unwind$sf_machine_global_initializer 0000000180015130     untitled_sfun_registry.obj
 0002:00001138       $unwind$getChartInfoFromSimStruct 0000000180015138     untitled_sfun_registry.obj
 0002:00001140       $unwind$mdlGetSimState     0000000180015140     untitled_sfun_registry.obj
 0002:00001148       $unwind$mdlSetSimState     0000000180015148     untitled_sfun_registry.obj
 0002:00001150       $unwind$mdlSetWorkWidths   0000000180015150     untitled_sfun_registry.obj
 0002:00001158       $unwind$mdlProcessParameters 0000000180015158     untitled_sfun_registry.obj
 0002:00001160       $unwind$mdl_start_processing 0000000180015160     untitled_sfun_registry.obj
 0002:00001168       $unwind$mdl_terminate_processing 0000000180015168     untitled_sfun_registry.obj
 0002:00001170       $unwind$mdlStart           0000000180015170     untitled_sfun_registry.obj
 0002:00001178       $unwind$mdlTerminate       0000000180015178     untitled_sfun_registry.obj
 0002:00001180       $unwind$mdlInitializeSizes 0000000180015180     untitled_sfun_registry.obj
 0002:00001188       $unwind$mdlInitializeSampleTimes 0000000180015188     untitled_sfun_registry.obj
 0002:00001190       $unwind$mdl_outputs_continuous_legacy 0000000180015190     untitled_sfun_registry.obj
 0002:00001198       $unwind$mdl_outputs_processing 0000000180015198     untitled_sfun_registry.obj
 0002:000011a0       $unwind$mdl_zeroCrossings_processing 00000001800151a0     untitled_sfun_registry.obj
 0002:000011a8       $unwind$mdlZeroCrossings   00000001800151a8     untitled_sfun_registry.obj
 0002:000011b0       $unwind$mdl_derivatives_processing 00000001800151b0     untitled_sfun_registry.obj
 0002:000011b8       $unwind$mdlDerivatives     00000001800151b8     untitled_sfun_registry.obj
 0002:000011c0       $unwind$mdl_initialize_conditions_processing 00000001800151c0     untitled_sfun_registry.obj
 0002:000011c8       $unwind$mdlInitializeConditions 00000001800151c8     untitled_sfun_registry.obj
 0002:000011d0       $unwind$mdl_ext_mode_exec_processing 00000001800151d0     untitled_sfun_registry.obj
 0002:000011d8       $unwind$mdlExtModeExec     00000001800151d8     untitled_sfun_registry.obj
 0002:000011e0       $unwind$mdlRTW             00000001800151e0     untitled_sfun_registry.obj
 0002:000011e8       $unwind$mdl_enable_processing 00000001800151e8     untitled_sfun_registry.obj
 0002:000011f0       $unwind$mdlEnable          00000001800151f0     untitled_sfun_registry.obj
 0002:000011f8       $unwind$mdl_disable_processing 00000001800151f8     untitled_sfun_registry.obj
 0002:00001200       $unwind$mdlDisable         0000000180015200     untitled_sfun_registry.obj
 0002:00001208       $unwind$mdlOutputs         0000000180015208     untitled_sfun_registry.obj
 0002:00001210       $unwind$ProcessMexSfunctionEveryCall 0000000180015210     untitled_sfun_registry.obj
 0002:00001218       $unwind$_RegNumInputPortsCB 0000000180015218     untitled_sfun_registry.obj
 0002:00001220       $unwind$_RegNumOutputPortsCB 0000000180015220     untitled_sfun_registry.obj
 0002:00001228       $unwind$_CreateSimStruct   0000000180015228     untitled_sfun_registry.obj
 0002:00001230       $unwind$_ssFatalError      0000000180015230     untitled_sfun_registry.obj
 0002:00001238       $unwind$_ProcessMexSfunctionCmdLineCall 0000000180015238     untitled_sfun_registry.obj
 0002:00001248       $unwind$__report_securityfailure 0000000180015248     MSVCRT:gs_report.obj
 0002:00001250       $unwind$__report_securityfailureEx 0000000180015250     MSVCRT:gs_report.obj
 0002:00001258       $unwind$__report_rangecheckfailure 0000000180015258     MSVCRT:gs_report.obj
 0002:00001260       $unwind$__raise_securityfailure 0000000180015260     MSVCRT:gs_report.obj
 0002:00001268       $unwind$__report_gsfailure 0000000180015268     MSVCRT:gs_report.obj
 0002:00001270       $unwind$__GSHandlerCheckCommon 0000000180015270     MSVCRT:gshandler.obj
 0002:00001278       $unwind$__GSHandlerCheck   0000000180015278     MSVCRT:gshandler.obj
 0002:00001280       $xdatasym                  0000000180015280     MSVCRT:amdsecgs.obj
 0002:00001284       $unwind$_CRT_INIT          0000000180015284     MSVCRT:crtdll.obj
 0002:000012a0       $unwind$pre_c_init         00000001800152a0     MSVCRT:crtdll.obj
 0002:000012a8       $unwind$__DllMainCRTStartup 00000001800152a8     MSVCRT:crtdll.obj
 0002:000012e4       $unwind$__DllMainCRTStartup$filt$0 00000001800152e4     MSVCRT:crtdll.obj
 0002:000012ec       $unwind$__DllMainCRTStartup$fin$1 00000001800152ec     MSVCRT:crtdll.obj
 0002:000012f4       $unwind$_DllMainCRTStartup 00000001800152f4     MSVCRT:crtdll.obj
 0002:00001304       $unwind$_IsNonwritableInCurrentImage 0000000180015304     MSVCRT:pesect.obj
 0002:00001328       $unwind$_IsNonwritableInCurrentImage$filt$0 0000000180015328     MSVCRT:pesect.obj
 0002:00001330       $unwind$atexit             0000000180015330     MSVCRT:atonexit.obj
 0002:00001338       $unwind$_onexit            0000000180015338     MSVCRT:atonexit.obj
 0002:00001358       $unwind$_onexit$fin$0      0000000180015358     MSVCRT:atonexit.obj
 0002:00001360       $unwind$__atonexitinit     0000000180015360     MSVCRT:atonexit.obj
 0002:00001368       $unwind$__security_init_cookie 0000000180015368     MSVCRT:gs_support.obj
 0002:00001374       $unwind$DllMain            0000000180015374     MSVCRT:dllmain.obj
 0002:0000137c       $unwind$_RTC_Initialize    000000018001537c     MSVCRT:initsect.obj
 0002:00001388       $unwind$_RTC_Terminate     0000000180015388     MSVCRT:initsect.obj
 0002:0000206a       .idata$6                   000000018001606a     sf_runtime:sf_runtime.dll
 0002:000021fa       .idata$6                   00000001800161fa     libmx:libmx.dll
 0002:0000227c       .idata$6                   000000018001627c     libmex:libmex.dll
 0002:0000229e       .idata$6                   000000018001629e     libut:libut.dll
 0002:000022fa       .idata$6                   00000001800162fa     libmwmathutil:libmwmathutil.dll
 0002:000023de       .idata$6                   00000001800163de     MSVCRT:MSVCR110.dll
 0002:00002574       .idata$6                   0000000180016574     kernel32:KERNEL32.dll
 0002:00002590       .edata                     0000000180016590     untitled_sfun.exp
 0002:000025b8       rgpv                       00000001800165b8     untitled_sfun.exp
 0002:000025bc       rgszName                   00000001800165bc     untitled_sfun.exp
 0002:000025c0       rgwOrd                     00000001800165c0     untitled_sfun.exp
 0002:000025c2       szName                     00000001800165c2     untitled_sfun.exp
 0002:000025d7       $N00001                    00000001800165d7     untitled_sfun.exp
 0003:00000000       $SG14867                   0000000180017000     untitled_sfun.obj
 0003:00000018       $SG14873                   0000000180017018     untitled_sfun.obj
 0003:00000020       $SG14884                   0000000180017020     untitled_sfun.obj
 0003:00000030       $SG14895                   0000000180017030     untitled_sfun.obj
 0003:0000003c       $SG14906                   000000018001703c     untitled_sfun.obj
 0003:00000044       $SG14928                   0000000180017044     untitled_sfun.obj
 0003:00000050       $SG14965                   0000000180017050     untitled_sfun.obj
 0003:00000070       $SG14977                   0000000180017070     untitled_sfun.obj
 0003:00000088       $SG14998                   0000000180017088     untitled_sfun.obj
 0003:000000a8       $SG15032                   00000001800170a8     untitled_sfun.obj
 0003:000000c8       $SG15041                   00000001800170c8     untitled_sfun.obj
 0003:000000e0       $SG15066                   00000001800170e0     untitled_sfun.obj
 0003:000000f8       $SG15075                   00000001800170f8     untitled_sfun.obj
 0003:00000110       $SG15100                   0000000180017110     untitled_sfun.obj
 0003:00000130       $SG15109                   0000000180017130     untitled_sfun.obj
 0003:00000148       $SG15135                   0000000180017148     untitled_sfun.obj
 0003:00000160       $SG15143                   0000000180017160     untitled_sfun.obj
 0003:00000168       $SG15144                   0000000180017168     untitled_sfun.obj
 0003:00000178       $SG15155                   0000000180017178     untitled_sfun.obj
 0003:00000188       $SG15156                   0000000180017188     untitled_sfun.obj
 0003:000001a0       $SG18432                   00000001800171a0     c1_untitled.obj
 0003:000001b0       $SG18433                   00000001800171b0     c1_untitled.obj
 0003:000001bc       $SG18439                   00000001800171bc     c1_untitled.obj
 0003:000001c0       $SG18434                   00000001800171c0     c1_untitled.obj
 0003:000001cc       $SG18440                   00000001800171cc     c1_untitled.obj
 0003:000001d0       $SG18435                   00000001800171d0     c1_untitled.obj
 0003:000001dc       $SG18441                   00000001800171dc     c1_untitled.obj
 0003:000001e0       $SG18436                   00000001800171e0     c1_untitled.obj
 0003:000001ec       $SG18442                   00000001800171ec     c1_untitled.obj
 0003:000001f0       $SG18437                   00000001800171f0     c1_untitled.obj
 0003:000001fc       $SG18463                   00000001800171fc     c1_untitled.obj
 0003:00000200       $SG18438                   0000000180017200     c1_untitled.obj
 0003:0000020c       $SG18464                   000000018001720c     c1_untitled.obj
 0003:00000210       $SG18443                   0000000180017210     c1_untitled.obj
 0003:00000218       $SG18444                   0000000180017218     c1_untitled.obj
 0003:00000220       $SG18445                   0000000180017220     c1_untitled.obj
 0003:00000258       $SG18446                   0000000180017258     c1_untitled.obj
 0003:00000260       $SG18447                   0000000180017260     c1_untitled.obj
 0003:00000268       $SG18448                   0000000180017268     c1_untitled.obj
 0003:0000027c       $SG18451                   000000018001727c     c1_untitled.obj
 0003:00000284       $SG18465                   0000000180017284     c1_untitled.obj
 0003:00000288       $SG18449                   0000000180017288     c1_untitled.obj
 0003:00000298       $SG18450                   0000000180017298     c1_untitled.obj
 0003:000002a8       $SG18452                   00000001800172a8     c1_untitled.obj
 0003:000002b4       $SG18466                   00000001800172b4     c1_untitled.obj
 0003:000002b8       $SG18453                   00000001800172b8     c1_untitled.obj
 0003:000002c8       $SG18455                   00000001800172c8     c1_untitled.obj
 0003:000002d8       $SG18459                   00000001800172d8     c1_untitled.obj
 0003:000002e4       $SG18470                   00000001800172e4     c1_untitled.obj
 0003:000002f0       $SG18454                   00000001800172f0     c1_untitled.obj
 0003:00000334       $SG18487                   0000000180017334     c1_untitled.obj
 0003:00000338       $SG18456                   0000000180017338     c1_untitled.obj
 0003:00000344       $SG18488                   0000000180017344     c1_untitled.obj
 0003:00000348       $SG18457                   0000000180017348     c1_untitled.obj
 0003:00000354       $SG18489                   0000000180017354     c1_untitled.obj
 0003:00000358       $SG18458                   0000000180017358     c1_untitled.obj
 0003:00000364       $SG18490                   0000000180017364     c1_untitled.obj
 0003:00000368       $SG18460                   0000000180017368     c1_untitled.obj
 0003:00000374       $SG18511                   0000000180017374     c1_untitled.obj
 0003:00000378       $SG18461                   0000000180017378     c1_untitled.obj
 0003:00000384       $SG18512                   0000000180017384     c1_untitled.obj
 0003:00000388       $SG18462                   0000000180017388     c1_untitled.obj
 0003:00000394       $SG18513                   0000000180017394     c1_untitled.obj
 0003:00000398       $SG18467                   0000000180017398     c1_untitled.obj
 0003:000003a0       $SG18468                   00000001800173a0     c1_untitled.obj
 0003:000003a8       $SG18471                   00000001800173a8     c1_untitled.obj
 0003:000003b0       $SG18469                   00000001800173b0     c1_untitled.obj
 0003:000003fc       $SG18475                   00000001800173fc     c1_untitled.obj
 0003:00000404       $SG18514                   0000000180017404     c1_untitled.obj
 0003:00000408       $SG18472                   0000000180017408     c1_untitled.obj
 0003:00000418       $SG18473                   0000000180017418     c1_untitled.obj
 0003:00000428       $SG18474                   0000000180017428     c1_untitled.obj
 0003:00000438       $SG18476                   0000000180017438     c1_untitled.obj
 0003:00000444       $SG18499                   0000000180017444     c1_untitled.obj
 0003:0000044c       $SG18535                   000000018001744c     c1_untitled.obj
 0003:00000450       $SG18477                   0000000180017450     c1_untitled.obj
 0003:0000045c       $SG18523                   000000018001745c     c1_untitled.obj
 0003:00000464       $SG18536                   0000000180017464     c1_untitled.obj
 0003:00000468       $SG18478                   0000000180017468     c1_untitled.obj
 0003:000004a8       $SG18479                   00000001800174a8     c1_untitled.obj
 0003:000004b4       $SG18537                   00000001800174b4     c1_untitled.obj
 0003:000004b8       $SG18480                   00000001800174b8     c1_untitled.obj
 0003:000004c4       $SG18538                   00000001800174c4     c1_untitled.obj
 0003:000004c8       $SG18481                   00000001800174c8     c1_untitled.obj
 0003:000004d4       $SG18559                   00000001800174d4     c1_untitled.obj
 0003:000004d8       $SG18482                   00000001800174d8     c1_untitled.obj
 0003:000004e4       $SG18560                   00000001800174e4     c1_untitled.obj
 0003:000004e8       $SG18483                   00000001800174e8     c1_untitled.obj
 0003:000004f4       $SG18561                   00000001800174f4     c1_untitled.obj
 0003:000004f8       $SG18484                   00000001800174f8     c1_untitled.obj
 0003:00000504       $SG18562                   0000000180017504     c1_untitled.obj
 0003:00000508       $SG18485                   0000000180017508     c1_untitled.obj
 0003:00000514       $SG18583                   0000000180017514     c1_untitled.obj
 0003:00000518       $SG18486                   0000000180017518     c1_untitled.obj
 0003:00000524       $SG18584                   0000000180017524     c1_untitled.obj
 0003:00000528       $SG18491                   0000000180017528     c1_untitled.obj
 0003:00000530       $SG18492                   0000000180017530     c1_untitled.obj
 0003:00000538       $SG18494                   0000000180017538     c1_untitled.obj
 0003:00000540       $SG18493                   0000000180017540     c1_untitled.obj
 0003:000005a0       $SG18495                   00000001800175a0     c1_untitled.obj
 0003:000005a8       $SG18496                   00000001800175a8     c1_untitled.obj
 0003:000005b0       $SG18497                   00000001800175b0     c1_untitled.obj
 0003:000005c0       $SG18498                   00000001800175c0     c1_untitled.obj
 0003:000005d0       $SG18500                   00000001800175d0     c1_untitled.obj
 0003:000005dc       $SG18547                   00000001800175dc     c1_untitled.obj
 0003:000005e4       $SG18585                   00000001800175e4     c1_untitled.obj
 0003:000005e8       $SG18501                   00000001800175e8     c1_untitled.obj
 0003:000005f4       $SG18571                   00000001800175f4     c1_untitled.obj
 0003:000005fc       $SG18586                   00000001800175fc     c1_untitled.obj
 0003:00000600       $SG18502                   0000000180017600     c1_untitled.obj
 0003:00000638       $SG18503                   0000000180017638     c1_untitled.obj
 0003:00000644       $SG17572                   0000000180017644     c1_untitled.obj
 0003:00000648       $SG18504                   0000000180017648     c1_untitled.obj
 0003:00000654       $SG17574                   0000000180017654     c1_untitled.obj
 0003:00000658       $SG18505                   0000000180017658     c1_untitled.obj
 0003:00000664       $SG18607                   0000000180017664     c1_untitled.obj
 0003:00000668       $SG18506                   0000000180017668     c1_untitled.obj
 0003:00000674       $SG17583                   0000000180017674     c1_untitled.obj
 0003:00000678       $SG18507                   0000000180017678     c1_untitled.obj
 0003:00000684       $SG18608                   0000000180017684     c1_untitled.obj
 0003:00000688       $SG18508                   0000000180017688     c1_untitled.obj
 0003:00000694       $SG18609                   0000000180017694     c1_untitled.obj
 0003:00000698       $SG18509                   0000000180017698     c1_untitled.obj
 0003:000006a4       $SG18610                   00000001800176a4     c1_untitled.obj
 0003:000006a8       $SG18510                   00000001800176a8     c1_untitled.obj
 0003:000006b4       $SG18617                   00000001800176b4     c1_untitled.obj
 0003:000006b8       $SG18515                   00000001800176b8     c1_untitled.obj
 0003:000006c0       $SG18516                   00000001800176c0     c1_untitled.obj
 0003:000006c8       $SG18517                   00000001800176c8     c1_untitled.obj
 0003:00000700       $SG18518                   0000000180017700     c1_untitled.obj
 0003:00000708       $SG18519                   0000000180017708     c1_untitled.obj
 0003:00000710       $SG18520                   0000000180017710     c1_untitled.obj
 0003:00000730       $SG18521                   0000000180017730     c1_untitled.obj
 0003:00000740       $SG18522                   0000000180017740     c1_untitled.obj
 0003:00000750       $SG18524                   0000000180017750     c1_untitled.obj
 0003:0000075c       $SG18595                   000000018001775c     c1_untitled.obj
 0003:00000764       $SG18624                   0000000180017764     c1_untitled.obj
 0003:00000768       $SG18525                   0000000180017768     c1_untitled.obj
 0003:00000778       $SG18527                   0000000180017778     c1_untitled.obj
 0003:00000788       $SG18531                   0000000180017788     c1_untitled.obj
 0003:00000794       $SG18542                   0000000180017794     c1_untitled.obj
 0003:000007a0       $SG18526                   00000001800177a0     c1_untitled.obj
 0003:000007f4       $SG18664                   00000001800177f4     c1_untitled.obj
 0003:000007f8       $SG18528                   00000001800177f8     c1_untitled.obj
 0003:00000804       $SG17758                   0000000180017804     c1_untitled.obj
 0003:00000808       $SG18529                   0000000180017808     c1_untitled.obj
 0003:00000814       $SG17830                   0000000180017814     c1_untitled.obj
 0003:00000818       $SG18530                   0000000180017818     c1_untitled.obj
 0003:00000824       $SG17846                   0000000180017824     c1_untitled.obj
 0003:00000828       $SG18532                   0000000180017828     c1_untitled.obj
 0003:00000834       $SG18898                   0000000180017834     c1_untitled.obj
 0003:00000838       $SG18533                   0000000180017838     c1_untitled.obj
 0003:00000844       $SG18899                   0000000180017844     c1_untitled.obj
 0003:00000848       $SG18534                   0000000180017848     c1_untitled.obj
 0003:00000854       $SG17992                   0000000180017854     c1_untitled.obj
 0003:00000858       $SG18539                   0000000180017858     c1_untitled.obj
 0003:00000860       $SG18540                   0000000180017860     c1_untitled.obj
 0003:00000868       $SG18541                   0000000180017868     c1_untitled.obj
 0003:000008a0       $SG18543                   00000001800178a0     c1_untitled.obj
 0003:000008a8       $SG18544                   00000001800178a8     c1_untitled.obj
 0003:000008c0       $SG18545                   00000001800178c0     c1_untitled.obj
 0003:000008d0       $SG18546                   00000001800178d0     c1_untitled.obj
 0003:000008e0       $SG18548                   00000001800178e0     c1_untitled.obj
 0003:000008ec       $SG18746                   00000001800178ec     c1_untitled.obj
 0003:000008f4       $SG18007                   00000001800178f4     c1_untitled.obj
 0003:000008f8       $SG18549                   00000001800178f8     c1_untitled.obj
 0003:00000908       $SG18551                   0000000180017908     c1_untitled.obj
 0003:00000918       $SG18555                   0000000180017918     c1_untitled.obj
 0003:00000924       $SG18566                   0000000180017924     c1_untitled.obj
 0003:00000930       $SG18550                   0000000180017930     c1_untitled.obj
 0003:00000978       $SG18552                   0000000180017978     c1_untitled.obj
 0003:00000984       $SG18008                   0000000180017984     c1_untitled.obj
 0003:00000988       $SG18553                   0000000180017988     c1_untitled.obj
 0003:00000994       $SG18009                   0000000180017994     c1_untitled.obj
 0003:00000998       $SG18554                   0000000180017998     c1_untitled.obj
 0003:000009a4       $SG18010                   00000001800179a4     c1_untitled.obj
 0003:000009a8       $SG18556                   00000001800179a8     c1_untitled.obj
 0003:000009b4       $SG18031                   00000001800179b4     c1_untitled.obj
 0003:000009b8       $SG18557                   00000001800179b8     c1_untitled.obj
 0003:000009c4       $SG18032                   00000001800179c4     c1_untitled.obj
 0003:000009c8       $SG18558                   00000001800179c8     c1_untitled.obj
 0003:000009d4       $SG18033                   00000001800179d4     c1_untitled.obj
 0003:000009d8       $SG18563                   00000001800179d8     c1_untitled.obj
 0003:000009e0       $SG18564                   00000001800179e0     c1_untitled.obj
 0003:000009e8       $SG18565                   00000001800179e8     c1_untitled.obj
 0003:00000a20       $SG18567                   0000000180017a20     c1_untitled.obj
 0003:00000a28       $SG18568                   0000000180017a28     c1_untitled.obj
 0003:00000a30       $SG18569                   0000000180017a30     c1_untitled.obj
 0003:00000a40       $SG18570                   0000000180017a40     c1_untitled.obj
 0003:00000a50       $SG18572                   0000000180017a50     c1_untitled.obj
 0003:00000a5c       $SG18747                   0000000180017a5c     c1_untitled.obj
 0003:00000a64       $SG18034                   0000000180017a64     c1_untitled.obj
 0003:00000a68       $SG18573                   0000000180017a68     c1_untitled.obj
 0003:00000a74       $SG18752                   0000000180017a74     c1_untitled.obj
 0003:00000a7c       $SG18055                   0000000180017a7c     c1_untitled.obj
 0003:00000a80       $SG18574                   0000000180017a80     c1_untitled.obj
 0003:00000ab8       $SG18575                   0000000180017ab8     c1_untitled.obj
 0003:00000ac4       $SG18056                   0000000180017ac4     c1_untitled.obj
 0003:00000ac8       $SG18576                   0000000180017ac8     c1_untitled.obj
 0003:00000ad4       $SG18057                   0000000180017ad4     c1_untitled.obj
 0003:00000ad8       $SG18577                   0000000180017ad8     c1_untitled.obj
 0003:00000ae4       $SG18058                   0000000180017ae4     c1_untitled.obj
 0003:00000ae8       $SG18578                   0000000180017ae8     c1_untitled.obj
 0003:00000af4       $SG18079                   0000000180017af4     c1_untitled.obj
 0003:00000af8       $SG18579                   0000000180017af8     c1_untitled.obj
 0003:00000b04       $SG18080                   0000000180017b04     c1_untitled.obj
 0003:00000b08       $SG18580                   0000000180017b08     c1_untitled.obj
 0003:00000b14       $SG18081                   0000000180017b14     c1_untitled.obj
 0003:00000b18       $SG18581                   0000000180017b18     c1_untitled.obj
 0003:00000b24       $SG18082                   0000000180017b24     c1_untitled.obj
 0003:00000b28       $SG18582                   0000000180017b28     c1_untitled.obj
 0003:00000b34       $SG18103                   0000000180017b34     c1_untitled.obj
 0003:00000b38       $SG18587                   0000000180017b38     c1_untitled.obj
 0003:00000b40       $SG18588                   0000000180017b40     c1_untitled.obj
 0003:00000b48       $SG18589                   0000000180017b48     c1_untitled.obj
 0003:00000b80       $SG18590                   0000000180017b80     c1_untitled.obj
 0003:00000b88       $SG18591                   0000000180017b88     c1_untitled.obj
 0003:00000b90       $SG18592                   0000000180017b90     c1_untitled.obj
 0003:00000ba4       $SG18104                   0000000180017ba4     c1_untitled.obj
 0003:00000ba8       $SG18593                   0000000180017ba8     c1_untitled.obj
 0003:00000bb8       $SG18594                   0000000180017bb8     c1_untitled.obj
 0003:00000bc8       $SG18596                   0000000180017bc8     c1_untitled.obj
 0003:00000bd4       $SG18753                   0000000180017bd4     c1_untitled.obj
 0003:00000bdc       $SG18105                   0000000180017bdc     c1_untitled.obj
 0003:00000be0       $SG18597                   0000000180017be0     c1_untitled.obj
 0003:00000bec       $SG18776                   0000000180017bec     c1_untitled.obj
 0003:00000bf4       $SG18798                   0000000180017bf4     c1_untitled.obj
 0003:00000bfc       $SG18106                   0000000180017bfc     c1_untitled.obj
 0003:00000c00       $SG18598                   0000000180017c00     c1_untitled.obj
 0003:00000c40       $SG18599                   0000000180017c40     c1_untitled.obj
 0003:00000c4c       $SG18127                   0000000180017c4c     c1_untitled.obj
 0003:00000c50       $SG18600                   0000000180017c50     c1_untitled.obj
 0003:00000c5c       $SG18128                   0000000180017c5c     c1_untitled.obj
 0003:00000c60       $SG18601                   0000000180017c60     c1_untitled.obj
 0003:00000c6c       $SG18129                   0000000180017c6c     c1_untitled.obj
 0003:00000c70       $SG18602                   0000000180017c70     c1_untitled.obj
 0003:00000c7c       $SG18130                   0000000180017c7c     c1_untitled.obj
 0003:00000c80       $SG18603                   0000000180017c80     c1_untitled.obj
 0003:00000c8c       $SG18151                   0000000180017c8c     c1_untitled.obj
 0003:00000c90       $SG18604                   0000000180017c90     c1_untitled.obj
 0003:00000c9c       $SG18152                   0000000180017c9c     c1_untitled.obj
 0003:00000ca0       $SG18605                   0000000180017ca0     c1_untitled.obj
 0003:00000cac       $SG18153                   0000000180017cac     c1_untitled.obj
 0003:00000cb0       $SG18606                   0000000180017cb0     c1_untitled.obj
 0003:00000cbc       $SG18154                   0000000180017cbc     c1_untitled.obj
 0003:00000cc0       $SG17587                   0000000180017cc0     c1_untitled.obj
 0003:00000cd8       $SG18744                   0000000180017cd8     c1_untitled.obj
 0003:00000ce4       $SG18777                   0000000180017ce4     c1_untitled.obj
 0003:00000cec       $SG18824                   0000000180017cec     c1_untitled.obj
 0003:00000cf4       $SG18160                   0000000180017cf4     c1_untitled.obj
 0003:00000cf8       $SG18745                   0000000180017cf8     c1_untitled.obj
 0003:00000d04       $SG18780                   0000000180017d04     c1_untitled.obj
 0003:00000d0c       $SG17995                   0000000180017d0c     c1_untitled.obj
 0003:00000d14       $SG18175                   0000000180017d14     c1_untitled.obj
 0003:00000d18       $SG18748                   0000000180017d18     c1_untitled.obj
 0003:00000d24       $SG18176                   0000000180017d24     c1_untitled.obj
 0003:00000d28       $SG18749                   0000000180017d28     c1_untitled.obj
 0003:00000d34       $SG18177                   0000000180017d34     c1_untitled.obj
 0003:00000d38       $SG18750                   0000000180017d38     c1_untitled.obj
 0003:00000d40       $SG18751                   0000000180017d40     c1_untitled.obj
 0003:00000d48       $SG18754                   0000000180017d48     c1_untitled.obj
 0003:00000d58       $SG18755                   0000000180017d58     c1_untitled.obj
 0003:00000d68       $SG18758                   0000000180017d68     c1_untitled.obj
 0003:00000d80       $SG17733                   0000000180017d80     c1_untitled.obj
 0003:00000ddc       $SG18178                   0000000180017ddc     c1_untitled.obj
 0003:00000de0       $SG18759                   0000000180017de0     c1_untitled.obj
 0003:00000dec       $SG18761                   0000000180017dec     c1_untitled.obj
 0003:00000df4       $SG18762                   0000000180017df4     c1_untitled.obj
 0003:00000dfc       $SG18763                   0000000180017dfc     c1_untitled.obj
 0003:00000e04       $SG18764                   0000000180017e04     c1_untitled.obj
 0003:00000e0c       $SG18791                   0000000180017e0c     c1_untitled.obj
 0003:00000e14       $SG18019                   0000000180017e14     c1_untitled.obj
 0003:00000e1c       $SG18199                   0000000180017e1c     c1_untitled.obj
 0003:00000e20       $SG18765                   0000000180017e20     c1_untitled.obj
 0003:00000e2c       $SG18200                   0000000180017e2c     c1_untitled.obj
 0003:00000e30       $SG18766                   0000000180017e30     c1_untitled.obj
 0003:00000e3c       $SG18772                   0000000180017e3c     c1_untitled.obj
 0003:00000e44       $SG18774                   0000000180017e44     c1_untitled.obj
 0003:00000e4c       $SG18775                   0000000180017e4c     c1_untitled.obj
 0003:00000e54       $SG18779                   0000000180017e54     c1_untitled.obj
 0003:00000e5c       $SG18781                   0000000180017e5c     c1_untitled.obj
 0003:00000e64       $SG18792                   0000000180017e64     c1_untitled.obj
 0003:00000e6c       $SG18043                   0000000180017e6c     c1_untitled.obj
 0003:00000e74       $SG18201                   0000000180017e74     c1_untitled.obj
 0003:00000e78       $SG18782                   0000000180017e78     c1_untitled.obj
 0003:00000e84       $SG18787                   0000000180017e84     c1_untitled.obj
 0003:00000e8c       $SG18789                   0000000180017e8c     c1_untitled.obj
 0003:00000e94       $SG18790                   0000000180017e94     c1_untitled.obj
 0003:00000e9c       $SG18794                   0000000180017e9c     c1_untitled.obj
 0003:00000ea4       $SG18795                   0000000180017ea4     c1_untitled.obj
 0003:00000eac       $SG18796                   0000000180017eac     c1_untitled.obj
 0003:00000eb4       $SG18816                   0000000180017eb4     c1_untitled.obj
 0003:00000ebc       $SG18067                   0000000180017ebc     c1_untitled.obj
 0003:00000ec4       $SG18202                   0000000180017ec4     c1_untitled.obj
 0003:00000ec8       $SG18797                   0000000180017ec8     c1_untitled.obj
 0003:00000ed4       $SG18208                   0000000180017ed4     c1_untitled.obj
 0003:00000ed8       $SG18799                   0000000180017ed8     c1_untitled.obj
 0003:00000ee4       $SG18801                   0000000180017ee4     c1_untitled.obj
 0003:00000eec       $SG18802                   0000000180017eec     c1_untitled.obj
 0003:00000ef4       $SG18803                   0000000180017ef4     c1_untitled.obj
 0003:00000efc       $SG18804                   0000000180017efc     c1_untitled.obj
 0003:00000f04       $SG18817                   0000000180017f04     c1_untitled.obj
 0003:00000f0c       $SG18091                   0000000180017f0c     c1_untitled.obj
 0003:00000f14       $SG18223                   0000000180017f14     c1_untitled.obj
 0003:00000f18       $SG18805                   0000000180017f18     c1_untitled.obj
 0003:00000f24       $SG18224                   0000000180017f24     c1_untitled.obj
 0003:00000f28       $SG18806                   0000000180017f28     c1_untitled.obj
 0003:00000f34       $SG18812                   0000000180017f34     c1_untitled.obj
 0003:00000f3c       $SG18814                   0000000180017f3c     c1_untitled.obj
 0003:00000f44       $SG18815                   0000000180017f44     c1_untitled.obj
 0003:00000f4c       $SG18819                   0000000180017f4c     c1_untitled.obj
 0003:00000f54       $SG18820                   0000000180017f54     c1_untitled.obj
 0003:00000f5c       $SG18821                   0000000180017f5c     c1_untitled.obj
 0003:00000f64       $SG18847                   0000000180017f64     c1_untitled.obj
 0003:00000f6c       $SG18115                   0000000180017f6c     c1_untitled.obj
 0003:00000f74       $SG18225                   0000000180017f74     c1_untitled.obj
 0003:00000f78       $SG18822                   0000000180017f78     c1_untitled.obj
 0003:00000f84       $SG18226                   0000000180017f84     c1_untitled.obj
 0003:00000f88       $SG18823                   0000000180017f88     c1_untitled.obj
 0003:00000f90       $SG18826                   0000000180017f90     c1_untitled.obj
 0003:00000fa0       $SG18835                   0000000180017fa0     c1_untitled.obj
 0003:00000fb0       $SG18836                   0000000180017fb0     c1_untitled.obj
 0003:00000fc0       $SG18837                   0000000180017fc0     c1_untitled.obj
 0003:00000fd0       $SG18838                   0000000180017fd0     c1_untitled.obj
 0003:00000fe0       $SG18839                   0000000180017fe0     c1_untitled.obj
 0003:00000ff4       $SG18247                   0000000180017ff4     c1_untitled.obj
 0003:00000ff8       $SG18840                   0000000180017ff8     c1_untitled.obj
 0003:0000100c       $SG18248                   000000018001800c     c1_untitled.obj
 0003:00001010       $SG18843                   0000000180018010     c1_untitled.obj
 0003:0000101c       $SG18249                   000000018001801c     c1_untitled.obj
 0003:00001020       $SG18855                   0000000180018020     c1_untitled.obj
 0003:00001044       $SG18900                   0000000180018044     c1_untitled.obj
 0003:0000104c       $SG18139                   000000018001804c     c1_untitled.obj
 0003:00001054       $SG18250                   0000000180018054     c1_untitled.obj
 0003:00001058       $SG18856                   0000000180018058     c1_untitled.obj
 0003:0000107c       $SG19023                   000000018001807c     c1_untitled.obj
 0003:00001084       $SG18163                   0000000180018084     c1_untitled.obj
 0003:0000108c       $SG18271                   000000018001808c     c1_untitled.obj
 0003:00001090       $SG18857                   0000000180018090     c1_untitled.obj
 0003:000010ac       $SG18187                   00000001800180ac     c1_untitled.obj
 0003:000010b4       $SG18272                   00000001800180b4     c1_untitled.obj
 0003:000010b8       $SG18858                   00000001800180b8     c1_untitled.obj
 0003:000010d4       $SG18211                   00000001800180d4     c1_untitled.obj
 0003:000010dc       $SG18273                   00000001800180dc     c1_untitled.obj
 0003:000010e0       $SG18865                   00000001800180e0     c1_untitled.obj
 0003:00001104       $SG18235                   0000000180018104     c1_untitled.obj
 0003:0000110c       $SG18274                   000000018001810c     c1_untitled.obj
 0003:00001110       $SG18866                   0000000180018110     c1_untitled.obj
 0003:0000112c       $SG18259                   000000018001812c     c1_untitled.obj
 0003:00001134       $SG18295                   0000000180018134     c1_untitled.obj
 0003:00001138       $SG18871                   0000000180018138     c1_untitled.obj
 0003:00001148       $SG18872                   0000000180018148     c1_untitled.obj
 0003:00001158       $SG18873                   0000000180018158     c1_untitled.obj
 0003:00001160       $SG18874                   0000000180018160     c1_untitled.obj
 0003:00001168       $SG18929                   0000000180018168     c1_untitled.obj
 0003:00001180       $SG18877                   0000000180018180     c1_untitled.obj
 0003:000011e8       $SG18906                   00000001800181e8     c1_untitled.obj
 0003:000011f8       $SG17987                   00000001800181f8     c1_untitled.obj
 0003:00001200       $SG18878                   0000000180018200     c1_untitled.obj
 0003:00001264       $SG18296                   0000000180018264     c1_untitled.obj
 0003:00001268       $SG17879                   0000000180018268     c1_untitled.obj
 0003:00001274       $SG18283                   0000000180018274     c1_untitled.obj
 0003:0000127c       $SG18297                   000000018001827c     c1_untitled.obj
 0003:00001280       $SG18907                   0000000180018280     c1_untitled.obj
 0003:00001290       $SG17988                   0000000180018290     c1_untitled.obj
 0003:00001298       $SG17990                   0000000180018298     c1_untitled.obj
 0003:000012a0       $SG17991                   00000001800182a0     c1_untitled.obj
 0003:000012a8       $SG17993                   00000001800182a8     c1_untitled.obj
 0003:000012b8       $SG17994                   00000001800182b8     c1_untitled.obj
 0003:000012c8       $SG17996                   00000001800182c8     c1_untitled.obj
 0003:000012d4       $SG18256                   00000001800182d4     c1_untitled.obj
 0003:000012dc       $SG18298                   00000001800182dc     c1_untitled.obj
 0003:000012e0       $SG17997                   00000001800182e0     c1_untitled.obj
 0003:000012ec       $SG18307                   00000001800182ec     c1_untitled.obj
 0003:000012f4       $SG18319                   00000001800182f4     c1_untitled.obj
 0003:000012f8       $SG17998                   00000001800182f8     c1_untitled.obj
 0003:00001330       $SG17999                   0000000180018330     c1_untitled.obj
 0003:0000133c       $SG18320                   000000018001833c     c1_untitled.obj
 0003:00001340       $SG18000                   0000000180018340     c1_untitled.obj
 0003:0000134c       $SG18321                   000000018001834c     c1_untitled.obj
 0003:00001350       $SG18001                   0000000180018350     c1_untitled.obj
 0003:0000135c       $SG18322                   000000018001835c     c1_untitled.obj
 0003:00001360       $SG18002                   0000000180018360     c1_untitled.obj
 0003:0000136c       $SG17317                   000000018001836c     c1_untitled.obj
 0003:00001370       $SG18003                   0000000180018370     c1_untitled.obj
 0003:0000137c       $SG18343                   000000018001837c     c1_untitled.obj
 0003:00001380       $SG18004                   0000000180018380     c1_untitled.obj
 0003:0000138c       $SG17319                   000000018001838c     c1_untitled.obj
 0003:00001390       $SG18005                   0000000180018390     c1_untitled.obj
 0003:0000139c       $SG18344                   000000018001839c     c1_untitled.obj
 0003:000013a0       $SG19030                   00000001800183a0     c1_untitled.obj
 0003:000013c4       $SG18345                   00000001800183c4     c1_untitled.obj
 0003:000013c8       $SG18006                   00000001800183c8     c1_untitled.obj
 0003:000013d4       $SG17321                   00000001800183d4     c1_untitled.obj
 0003:000013d8       $SG18011                   00000001800183d8     c1_untitled.obj
 0003:000013e0       $SG18012                   00000001800183e0     c1_untitled.obj
 0003:000013e8       $SG18013                   00000001800183e8     c1_untitled.obj
 0003:00001420       $SG18014                   0000000180018420     c1_untitled.obj
 0003:00001428       $SG18015                   0000000180018428     c1_untitled.obj
 0003:00001430       $SG18016                   0000000180018430     c1_untitled.obj
 0003:00001450       $SG18017                   0000000180018450     c1_untitled.obj
 0003:00001460       $SG18018                   0000000180018460     c1_untitled.obj
 0003:00001470       $SG18020                   0000000180018470     c1_untitled.obj
 0003:0000147c       $SG18331                   000000018001847c     c1_untitled.obj
 0003:00001484       $SG18346                   0000000180018484     c1_untitled.obj
 0003:00001488       $SG18021                   0000000180018488     c1_untitled.obj
 0003:00001498       $SG18023                   0000000180018498     c1_untitled.obj
 0003:000014a8       $SG19051                   00000001800184a8     c1_untitled.obj
 0003:000014b8       $SG19052                   00000001800184b8     c1_untitled.obj
 0003:000014d0       $SG18022                   00000001800184d0     c1_untitled.obj
 0003:00001524       $SG17315                   0000000180018524     c1_untitled.obj
 0003:0000152c       $SG17322                   000000018001852c     c1_untitled.obj
 0003:00001530       $SG18024                   0000000180018530     c1_untitled.obj
 0003:0000153c       $SG17323                   000000018001853c     c1_untitled.obj
 0003:00001540       $SG18025                   0000000180018540     c1_untitled.obj
 0003:0000154c       $SG17324                   000000018001854c     c1_untitled.obj
 0003:00001550       $SG18026                   0000000180018550     c1_untitled.obj
 0003:0000155c       $SG17325                   000000018001855c     c1_untitled.obj
 0003:00001560       $SG18027                   0000000180018560     c1_untitled.obj
 0003:0000156c       $SG17326                   000000018001856c     c1_untitled.obj
 0003:00001570       $SG18028                   0000000180018570     c1_untitled.obj
 0003:0000157c       $SG17327                   000000018001857c     c1_untitled.obj
 0003:00001580       $SG18029                   0000000180018580     c1_untitled.obj
 0003:0000158c       $SG17328                   000000018001858c     c1_untitled.obj
 0003:00001590       $SG18030                   0000000180018590     c1_untitled.obj
 0003:0000159c       $SG17329                   000000018001859c     c1_untitled.obj
 0003:000015a0       $SG18035                   00000001800185a0     c1_untitled.obj
 0003:000015a8       $SG18036                   00000001800185a8     c1_untitled.obj
 0003:000015b0       $SG18037                   00000001800185b0     c1_untitled.obj
 0003:000015e8       $SG18038                   00000001800185e8     c1_untitled.obj
 0003:000015f0       $SG18039                   00000001800185f0     c1_untitled.obj
 0003:000015f8       $SG18040                   00000001800185f8     c1_untitled.obj
 0003:00001608       $SG18041                   0000000180018608     c1_untitled.obj
 0003:00001618       $SG19066                   0000000180018618     c1_untitled.obj
 0003:00001648       $SG18042                   0000000180018648     c1_untitled.obj
 0003:00001658       $SG18044                   0000000180018658     c1_untitled.obj
 0003:00001664       $SG17318                   0000000180018664     c1_untitled.obj
 0003:0000166c       $SG17330                   000000018001866c     c1_untitled.obj
 0003:00001670       $SG18045                   0000000180018670     c1_untitled.obj
 0003:00001680       $SG18046                   0000000180018680     c1_untitled.obj
 0003:000016c4       $SG18355                   00000001800186c4     c1_untitled.obj
 0003:000016cc       $SG17331                   00000001800186cc     c1_untitled.obj
 0003:000016d0       $SG18047                   00000001800186d0     c1_untitled.obj
 0003:000016dc       $SG17332                   00000001800186dc     c1_untitled.obj
 0003:000016e0       $SG18048                   00000001800186e0     c1_untitled.obj
 0003:000016ec       $SG17333                   00000001800186ec     c1_untitled.obj
 0003:000016f0       $SG18049                   00000001800186f0     c1_untitled.obj
 0003:000016fc       $SG17334                   00000001800186fc     c1_untitled.obj
 0003:00001700       $SG18050                   0000000180018700     c1_untitled.obj
 0003:0000170c       $SG17335                   000000018001870c     c1_untitled.obj
 0003:00001710       $SG18051                   0000000180018710     c1_untitled.obj
 0003:0000171c       $SG17336                   000000018001871c     c1_untitled.obj
 0003:00001720       $SG18052                   0000000180018720     c1_untitled.obj
 0003:0000172c       $SG17337                   000000018001872c     c1_untitled.obj
 0003:00001730       $SG18053                   0000000180018730     c1_untitled.obj
 0003:0000173c       $SG17338                   000000018001873c     c1_untitled.obj
 0003:00001740       $SG18054                   0000000180018740     c1_untitled.obj
 0003:0000174c       $SG17339                   000000018001874c     c1_untitled.obj
 0003:00001750       $SG18059                   0000000180018750     c1_untitled.obj
 0003:00001758       $SG18060                   0000000180018758     c1_untitled.obj
 0003:00001760       $SG18062                   0000000180018760     c1_untitled.obj
 0003:00001768       $SG18063                   0000000180018768     c1_untitled.obj
 0003:00001770       $SG18064                   0000000180018770     c1_untitled.obj
 0003:00001778       $SG18065                   0000000180018778     c1_untitled.obj
 0003:00001788       $SG18066                   0000000180018788     c1_untitled.obj
 0003:00001798       $SG18068                   0000000180018798     c1_untitled.obj
 0003:000017a4       $SG17340                   00000001800187a4     c1_untitled.obj
 0003:000017a8       $SG18069                   00000001800187a8     c1_untitled.obj
 0003:000017b8       $SG18070                   00000001800187b8     c1_untitled.obj
 0003:000017f0       $SG19094                   00000001800187f0     c1_untitled.obj
 0003:00001850       $SG18071                   0000000180018850     c1_untitled.obj
 0003:0000185c       $SG17341                   000000018001885c     c1_untitled.obj
 0003:00001860       $SG18072                   0000000180018860     c1_untitled.obj
 0003:0000186c       $SG17342                   000000018001886c     c1_untitled.obj
 0003:00001870       $SG18073                   0000000180018870     c1_untitled.obj
 0003:0000187c       $SG18367                   000000018001887c     c1_untitled.obj
 0003:00001880       $SG18074                   0000000180018880     c1_untitled.obj
 0003:0000188c       $SG17343                   000000018001888c     c1_untitled.obj
 0003:00001890       $SG18075                   0000000180018890     c1_untitled.obj
 0003:0000189c       $SG18368                   000000018001889c     c1_untitled.obj
 0003:000018a0       $SG18076                   00000001800188a0     c1_untitled.obj
 0003:000018ac       $SG17344                   00000001800188ac     c1_untitled.obj
 0003:000018b0       $SG18077                   00000001800188b0     c1_untitled.obj
 0003:000018bc       $SG18369                   00000001800188bc     c1_untitled.obj
 0003:000018c0       $SG18078                   00000001800188c0     c1_untitled.obj
 0003:000018cc       $SG17345                   00000001800188cc     c1_untitled.obj
 0003:000018d0       $SG18083                   00000001800188d0     c1_untitled.obj
 0003:000018d8       $SG18084                   00000001800188d8     c1_untitled.obj
 0003:000018e0       $SG18085                   00000001800188e0     c1_untitled.obj
 0003:00001918       $SG18086                   0000000180018918     c1_untitled.obj
 0003:00001920       $SG18087                   0000000180018920     c1_untitled.obj
 0003:00001928       $SG18088                   0000000180018928     c1_untitled.obj
 0003:00001948       $SG18089                   0000000180018948     c1_untitled.obj
 0003:00001958       $SG18090                   0000000180018958     c1_untitled.obj
 0003:00001968       $SG18092                   0000000180018968     c1_untitled.obj
 0003:00001974       $SG18370                   0000000180018974     c1_untitled.obj
 0003:00001978       $SG18093                   0000000180018978     c1_untitled.obj
 0003:00001988       $SG18095                   0000000180018988     c1_untitled.obj
 0003:00001998       $SG18099                   0000000180018998     c1_untitled.obj
 0003:000019a4       $SG18110                   00000001800189a4     c1_untitled.obj
 0003:000019b0       $SG18094                   00000001800189b0     c1_untitled.obj
 0003:00001a04       $SG17346                   0000000180018a04     c1_untitled.obj
 0003:00001a08       $SG18096                   0000000180018a08     c1_untitled.obj
 0003:00001a14       $SG17347                   0000000180018a14     c1_untitled.obj
 0003:00001a18       $SG18097                   0000000180018a18     c1_untitled.obj
 0003:00001a24       $SG17348                   0000000180018a24     c1_untitled.obj
 0003:00001a28       $SG18098                   0000000180018a28     c1_untitled.obj
 0003:00001a34       $SG17349                   0000000180018a34     c1_untitled.obj
 0003:00001a38       $SG18100                   0000000180018a38     c1_untitled.obj
 0003:00001a44       $SG17350                   0000000180018a44     c1_untitled.obj
 0003:00001a48       $SG18101                   0000000180018a48     c1_untitled.obj
 0003:00001a54       $SG17351                   0000000180018a54     c1_untitled.obj
 0003:00001a58       $SG18102                   0000000180018a58     c1_untitled.obj
 0003:00001a64       $SG17352                   0000000180018a64     c1_untitled.obj
 0003:00001a68       $SG18107                   0000000180018a68     c1_untitled.obj
 0003:00001a70       $SG18108                   0000000180018a70     c1_untitled.obj
 0003:00001a78       $SG18109                   0000000180018a78     c1_untitled.obj
 0003:00001ab0       $SG18111                   0000000180018ab0     c1_untitled.obj
 0003:00001ab8       $SG18112                   0000000180018ab8     c1_untitled.obj
 0003:00001ac8       $SG18113                   0000000180018ac8     c1_untitled.obj
 0003:00001ad8       $SG18114                   0000000180018ad8     c1_untitled.obj
 0003:00001ae8       $SG18116                   0000000180018ae8     c1_untitled.obj
 0003:00001af4       $SG17353                   0000000180018af4     c1_untitled.obj
 0003:00001af8       $SG18117                   0000000180018af8     c1_untitled.obj
 0003:00001b08       $SG18119                   0000000180018b08     c1_untitled.obj
 0003:00001b18       $SG18123                   0000000180018b18     c1_untitled.obj
 0003:00001b24       $SG18134                   0000000180018b24     c1_untitled.obj
 0003:00001b30       $SG18118                   0000000180018b30     c1_untitled.obj
 0003:00001b74       $SG17354                   0000000180018b74     c1_untitled.obj
 0003:00001b78       $SG18120                   0000000180018b78     c1_untitled.obj
 0003:00001b84       $SG18391                   0000000180018b84     c1_untitled.obj
 0003:00001b88       $SG18121                   0000000180018b88     c1_untitled.obj
 0003:00001b94       $SG18392                   0000000180018b94     c1_untitled.obj
 0003:00001b98       $SG18122                   0000000180018b98     c1_untitled.obj
 0003:00001ba4       $SG18393                   0000000180018ba4     c1_untitled.obj
 0003:00001ba8       $SG18124                   0000000180018ba8     c1_untitled.obj
 0003:00001bb4       $SG18394                   0000000180018bb4     c1_untitled.obj
 0003:00001bb8       $SG18125                   0000000180018bb8     c1_untitled.obj
 0003:00001bc4       $SG18415                   0000000180018bc4     c1_untitled.obj
 0003:00001bc8       $SG18126                   0000000180018bc8     c1_untitled.obj
 0003:00001bd4       $SG18416                   0000000180018bd4     c1_untitled.obj
 0003:00001bd8       $SG18131                   0000000180018bd8     c1_untitled.obj
 0003:00001be0       $SG18132                   0000000180018be0     c1_untitled.obj
 0003:00001be8       $SG18135                   0000000180018be8     c1_untitled.obj
 0003:00001bf0       $SG18136                   0000000180018bf0     c1_untitled.obj
 0003:00001c00       $SG18137                   0000000180018c00     c1_untitled.obj
 0003:00001c10       $SG18138                   0000000180018c10     c1_untitled.obj
 0003:00001c20       $SG18140                   0000000180018c20     c1_untitled.obj
 0003:00001c2c       $SG18379                   0000000180018c2c     c1_untitled.obj
 0003:00001c34       $SG18417                   0000000180018c34     c1_untitled.obj
 0003:00001c38       $SG18141                   0000000180018c38     c1_untitled.obj
 0003:00001c48       $SG18143                   0000000180018c48     c1_untitled.obj
 0003:00001c58       $SG18147                   0000000180018c58     c1_untitled.obj
 0003:00001c64       $SG18158                   0000000180018c64     c1_untitled.obj
 0003:00001c70       $SG18142                   0000000180018c70     c1_untitled.obj
 0003:00001cd0       $SG18144                   0000000180018cd0     c1_untitled.obj
 0003:00001cdc       $SG18418                   0000000180018cdc     c1_untitled.obj
 0003:00001ce0       $SG18145                   0000000180018ce0     c1_untitled.obj
 0003:00001cf0       $SG18146                   0000000180018cf0     c1_untitled.obj
 0003:00001d00       $SG18148                   0000000180018d00     c1_untitled.obj
 0003:00001d10       $SG18149                   0000000180018d10     c1_untitled.obj
 0003:00001d20       $SG18150                   0000000180018d20     c1_untitled.obj
 0003:00001d30       $SG18155                   0000000180018d30     c1_untitled.obj
 0003:00001d38       $SG18156                   0000000180018d38     c1_untitled.obj
 0003:00001d40       $SG18157                   0000000180018d40     c1_untitled.obj
 0003:00001da0       $SG18159                   0000000180018da0     c1_untitled.obj
 0003:00001da8       $SG18161                   0000000180018da8     c1_untitled.obj
 0003:00001db8       $SG18162                   0000000180018db8     c1_untitled.obj
 0003:00001dc8       $SG18164                   0000000180018dc8     c1_untitled.obj
 0003:00001dd8       $SG18165                   0000000180018dd8     c1_untitled.obj
 0003:00001de8       $SG18166                   0000000180018de8     c1_untitled.obj
 0003:00001e20       $SG18167                   0000000180018e20     c1_untitled.obj
 0003:00001e30       $SG18168                   0000000180018e30     c1_untitled.obj
 0003:00001e40       $SG18169                   0000000180018e40     c1_untitled.obj
 0003:00001e50       $SG18170                   0000000180018e50     c1_untitled.obj
 0003:00001e60       $SG18171                   0000000180018e60     c1_untitled.obj
 0003:00001e70       $SG18172                   0000000180018e70     c1_untitled.obj
 0003:00001e80       $SG18173                   0000000180018e80     c1_untitled.obj
 0003:00001e90       $SG18174                   0000000180018e90     c1_untitled.obj
 0003:00001ea0       $SG18179                   0000000180018ea0     c1_untitled.obj
 0003:00001ea8       $SG18180                   0000000180018ea8     c1_untitled.obj
 0003:00001eb0       $SG18181                   0000000180018eb0     c1_untitled.obj
 0003:00001ee8       $SG18182                   0000000180018ee8     c1_untitled.obj
 0003:00001ef0       $SG18183                   0000000180018ef0     c1_untitled.obj
 0003:00001ef8       $SG18184                   0000000180018ef8     c1_untitled.obj
 0003:00001f08       $SG18185                   0000000180018f08     c1_untitled.obj
 0003:00001f18       $SG18186                   0000000180018f18     c1_untitled.obj
 0003:00001f28       $SG18188                   0000000180018f28     c1_untitled.obj
 0003:00001f38       $SG18189                   0000000180018f38     c1_untitled.obj
 0003:00001f48       $SG18191                   0000000180018f48     c1_untitled.obj
 0003:00001f58       $SG18195                   0000000180018f58     c1_untitled.obj
 0003:00001f64       $SG18206                   0000000180018f64     c1_untitled.obj
 0003:00001f70       $SG18190                   0000000180018f70     c1_untitled.obj
 0003:00001fb8       $SG18192                   0000000180018fb8     c1_untitled.obj
 0003:00001fc8       $SG18193                   0000000180018fc8     c1_untitled.obj
 0003:00001fd8       $SG18194                   0000000180018fd8     c1_untitled.obj
 0003:00001fe8       $SG18196                   0000000180018fe8     c1_untitled.obj
 0003:00001ff8       $SG18197                   0000000180018ff8     c1_untitled.obj
 0003:00002008       $SG18198                   0000000180019008     c1_untitled.obj
 0003:00002018       $SG18203                   0000000180019018     c1_untitled.obj
 0003:00002020       $SG18204                   0000000180019020     c1_untitled.obj
 0003:00002028       $SG18207                   0000000180019028     c1_untitled.obj
 0003:00002030       $SG18205                   0000000180019030     c1_untitled.obj
 0003:00002090       $SG18209                   0000000180019090     c1_untitled.obj
 0003:000020a0       $SG18210                   00000001800190a0     c1_untitled.obj
 0003:000020b0       $SG18212                   00000001800190b0     c1_untitled.obj
 0003:000020c0       $SG18213                   00000001800190c0     c1_untitled.obj
 0003:000020d0       $SG18214                   00000001800190d0     c1_untitled.obj
 0003:00002108       $SG18215                   0000000180019108     c1_untitled.obj
 0003:00002118       $SG18216                   0000000180019118     c1_untitled.obj
 0003:00002128       $SG18217                   0000000180019128     c1_untitled.obj
 0003:00002138       $SG18218                   0000000180019138     c1_untitled.obj
 0003:00002148       $SG18219                   0000000180019148     c1_untitled.obj
 0003:00002158       $SG18220                   0000000180019158     c1_untitled.obj
 0003:00002168       $SG18221                   0000000180019168     c1_untitled.obj
 0003:00002178       $SG18222                   0000000180019178     c1_untitled.obj
 0003:00002188       $SG18227                   0000000180019188     c1_untitled.obj
 0003:00002190       $SG18228                   0000000180019190     c1_untitled.obj
 0003:00002198       $SG18229                   0000000180019198     c1_untitled.obj
 0003:000021d0       $SG18230                   00000001800191d0     c1_untitled.obj
 0003:000021d8       $SG18231                   00000001800191d8     c1_untitled.obj
 0003:000021e0       $SG18232                   00000001800191e0     c1_untitled.obj
 0003:000021f0       $SG18233                   00000001800191f0     c1_untitled.obj
 0003:00002200       $SG18234                   0000000180019200     c1_untitled.obj
 0003:00002210       $SG18236                   0000000180019210     c1_untitled.obj
 0003:00002220       $SG18237                   0000000180019220     c1_untitled.obj
 0003:00002230       $SG18238                   0000000180019230     c1_untitled.obj
 0003:00002278       $SG18239                   0000000180019278     c1_untitled.obj
 0003:00002288       $SG18240                   0000000180019288     c1_untitled.obj
 0003:00002298       $SG18241                   0000000180019298     c1_untitled.obj
 0003:000022a8       $SG18242                   00000001800192a8     c1_untitled.obj
 0003:000022b8       $SG18243                   00000001800192b8     c1_untitled.obj
 0003:000022c8       $SG18244                   00000001800192c8     c1_untitled.obj
 0003:000022d8       $SG18245                   00000001800192d8     c1_untitled.obj
 0003:000022e8       $SG18246                   00000001800192e8     c1_untitled.obj
 0003:000022f8       $SG18251                   00000001800192f8     c1_untitled.obj
 0003:00002300       $SG18252                   0000000180019300     c1_untitled.obj
 0003:00002308       $SG18254                   0000000180019308     c1_untitled.obj
 0003:00002310       $SG18253                   0000000180019310     c1_untitled.obj
 0003:00002370       $SG18255                   0000000180019370     c1_untitled.obj
 0003:00002378       $SG18257                   0000000180019378     c1_untitled.obj
 0003:00002388       $SG18258                   0000000180019388     c1_untitled.obj
 0003:00002398       $SG18260                   0000000180019398     c1_untitled.obj
 0003:000023a8       $SG18261                   00000001800193a8     c1_untitled.obj
 0003:000023b8       $SG18262                   00000001800193b8     c1_untitled.obj
 0003:000023f0       $SG18263                   00000001800193f0     c1_untitled.obj
 0003:00002400       $SG18264                   0000000180019400     c1_untitled.obj
 0003:00002410       $SG18265                   0000000180019410     c1_untitled.obj
 0003:00002420       $SG18266                   0000000180019420     c1_untitled.obj
 0003:00002430       $SG18267                   0000000180019430     c1_untitled.obj
 0003:00002440       $SG18268                   0000000180019440     c1_untitled.obj
 0003:00002450       $SG18269                   0000000180019450     c1_untitled.obj
 0003:00002460       $SG18270                   0000000180019460     c1_untitled.obj
 0003:00002470       $SG18275                   0000000180019470     c1_untitled.obj
 0003:00002478       $SG18276                   0000000180019478     c1_untitled.obj
 0003:00002480       $SG18277                   0000000180019480     c1_untitled.obj
 0003:000024b8       $SG18278                   00000001800194b8     c1_untitled.obj
 0003:000024c0       $SG18279                   00000001800194c0     c1_untitled.obj
 0003:000024c8       $SG18280                   00000001800194c8     c1_untitled.obj
 0003:000024e8       $SG18281                   00000001800194e8     c1_untitled.obj
 0003:000024f8       $SG18282                   00000001800194f8     c1_untitled.obj
 0003:00002508       $SG18284                   0000000180019508     c1_untitled.obj
 0003:00002518       $SG18285                   0000000180019518     c1_untitled.obj
 0003:00002528       $SG18287                   0000000180019528     c1_untitled.obj
 0003:00002538       $SG18291                   0000000180019538     c1_untitled.obj
 0003:00002544       $SG18302                   0000000180019544     c1_untitled.obj
 0003:00002550       $SG18286                   0000000180019550     c1_untitled.obj
 0003:000025a8       $SG18288                   00000001800195a8     c1_untitled.obj
 0003:000025b8       $SG18289                   00000001800195b8     c1_untitled.obj
 0003:000025c8       $SG18290                   00000001800195c8     c1_untitled.obj
 0003:000025d8       $SG18292                   00000001800195d8     c1_untitled.obj
 0003:000025e8       $SG18293                   00000001800195e8     c1_untitled.obj
 0003:000025f8       $SG18294                   00000001800195f8     c1_untitled.obj
 0003:00002608       $SG18299                   0000000180019608     c1_untitled.obj
 0003:00002610       $SG18300                   0000000180019610     c1_untitled.obj
 0003:00002618       $SG18301                   0000000180019618     c1_untitled.obj
 0003:00002658       $SG18303                   0000000180019658     c1_untitled.obj
 0003:00002660       $SG18304                   0000000180019660     c1_untitled.obj
 0003:00002670       $SG18305                   0000000180019670     c1_untitled.obj
 0003:00002680       $SG18306                   0000000180019680     c1_untitled.obj
 0003:00002690       $SG18308                   0000000180019690     c1_untitled.obj
 0003:000026a0       $SG18309                   00000001800196a0     c1_untitled.obj
 0003:000026b0       $SG18310                   00000001800196b0     c1_untitled.obj
 0003:000026f0       $SG18311                   00000001800196f0     c1_untitled.obj
 0003:00002700       $SG18312                   0000000180019700     c1_untitled.obj
 0003:00002710       $SG18313                   0000000180019710     c1_untitled.obj
 0003:00002720       $SG18314                   0000000180019720     c1_untitled.obj
 0003:00002730       $SG18315                   0000000180019730     c1_untitled.obj
 0003:00002740       $SG18316                   0000000180019740     c1_untitled.obj
 0003:00002750       $SG18317                   0000000180019750     c1_untitled.obj
 0003:00002760       $SG18318                   0000000180019760     c1_untitled.obj
 0003:00002770       $SG18323                   0000000180019770     c1_untitled.obj
 0003:00002778       $SG18324                   0000000180019778     c1_untitled.obj
 0003:00002780       $SG18325                   0000000180019780     c1_untitled.obj
 0003:000027c0       $SG18326                   00000001800197c0     c1_untitled.obj
 0003:000027c8       $SG18327                   00000001800197c8     c1_untitled.obj
 0003:000027d0       $SG18328                   00000001800197d0     c1_untitled.obj
 0003:000027e8       $SG18329                   00000001800197e8     c1_untitled.obj
 0003:000027f8       $SG17307                   00000001800197f8     c1_untitled.obj
 0003:00002800       c1_debug_family_names      0000000180019800     c1_untitled.obj
 0003:00002868       $SG18330                   0000000180019868     c1_untitled.obj
 0003:00002878       $SG18332                   0000000180019878     c1_untitled.obj
 0003:00002888       $SG17308                   0000000180019888     c1_untitled.obj
 0003:00002890       $SG18333                   0000000180019890     c1_untitled.obj
 0003:000028a0       $SG17309                   00000001800198a0     c1_untitled.obj
 0003:000028b0       $SG18334                   00000001800198b0     c1_untitled.obj
 0003:000028f8       $SG17310                   00000001800198f8     c1_untitled.obj
 0003:00002908       $SG18335                   0000000180019908     c1_untitled.obj
 0003:00002918       $SG17311                   0000000180019918     c1_untitled.obj
 0003:00002928       $SG18336                   0000000180019928     c1_untitled.obj
 0003:00002938       $SG17312                   0000000180019938     c1_untitled.obj
 0003:00002948       $SG18337                   0000000180019948     c1_untitled.obj
 0003:00002958       $SG17313                   0000000180019958     c1_untitled.obj
 0003:00002968       $SG18338                   0000000180019968     c1_untitled.obj
 0003:00002978       $SG17314                   0000000180019978     c1_untitled.obj
 0003:00002988       $SG18339                   0000000180019988     c1_untitled.obj
 0003:00002998       $SG18340                   0000000180019998     c1_untitled.obj
 0003:000029a8       $SG17316                   00000001800199a8     c1_untitled.obj
 0003:000029b0       $SG18341                   00000001800199b0     c1_untitled.obj
 0003:000029c0       $SG18342                   00000001800199c0     c1_untitled.obj
 0003:000029d0       c1_b_debug_family_names    00000001800199d0     c1_untitled.obj
 0003:00002b38       $SG18347                   0000000180019b38     c1_untitled.obj
 0003:00002b40       $SG18348                   0000000180019b40     c1_untitled.obj
 0003:00002b48       $SG18349                   0000000180019b48     c1_untitled.obj
 0003:00002b88       $SG18350                   0000000180019b88     c1_untitled.obj
 0003:00002b90       $SG18351                   0000000180019b90     c1_untitled.obj
 0003:00002b98       $SG18352                   0000000180019b98     c1_untitled.obj
 0003:00002bb0       $SG18353                   0000000180019bb0     c1_untitled.obj
 0003:00002bc0       $SG18354                   0000000180019bc0     c1_untitled.obj
 0003:00002bd0       $SG18356                   0000000180019bd0     c1_untitled.obj
 0003:00002be0       $SG18357                   0000000180019be0     c1_untitled.obj
 0003:00002bf0       $SG18358                   0000000180019bf0     c1_untitled.obj
 0003:00002c38       $SG18359                   0000000180019c38     c1_untitled.obj
 0003:00002c48       $SG18360                   0000000180019c48     c1_untitled.obj
 0003:00002c58       $SG18361                   0000000180019c58     c1_untitled.obj
 0003:00002c68       $SG18362                   0000000180019c68     c1_untitled.obj
 0003:00002c78       $SG18363                   0000000180019c78     c1_untitled.obj
 0003:00002c88       $SG18364                   0000000180019c88     c1_untitled.obj
 0003:00002c98       $SG18365                   0000000180019c98     c1_untitled.obj
 0003:00002ca8       $SG18366                   0000000180019ca8     c1_untitled.obj
 0003:00002cb8       $SG18371                   0000000180019cb8     c1_untitled.obj
 0003:00002cc0       $SG18372                   0000000180019cc0     c1_untitled.obj
 0003:00002cc8       $SG18374                   0000000180019cc8     c1_untitled.obj
 0003:00002cd0       $SG18373                   0000000180019cd0     c1_untitled.obj
 0003:00002d14       $SG18375                   0000000180019d14     c1_untitled.obj
 0003:00002d20       $SG18376                   0000000180019d20     c1_untitled.obj
 0003:00002d40       $SG18377                   0000000180019d40     c1_untitled.obj
 0003:00002d50       $SG18378                   0000000180019d50     c1_untitled.obj
 0003:00002d60       $SG17355                   0000000180019d60     c1_untitled.obj
 0003:00002d68       $SG18380                   0000000180019d68     c1_untitled.obj
 0003:00002d78       $SG17356                   0000000180019d78     c1_untitled.obj
 0003:00002d80       $SG18381                   0000000180019d80     c1_untitled.obj
 0003:00002d90       $SG17357                   0000000180019d90     c1_untitled.obj
 0003:00002d98       $SG17358                   0000000180019d98     c1_untitled.obj
 0003:00002da0       $SG18382                   0000000180019da0     c1_untitled.obj
 0003:00002de8       $SG18383                   0000000180019de8     c1_untitled.obj
 0003:00002df8       $SG17359                   0000000180019df8     c1_untitled.obj
 0003:00002e08       $SG18384                   0000000180019e08     c1_untitled.obj
 0003:00002e18       $SG17360                   0000000180019e18     c1_untitled.obj
 0003:00002e28       $SG18385                   0000000180019e28     c1_untitled.obj
 0003:00002e38       $SG17361                   0000000180019e38     c1_untitled.obj
 0003:00002e48       $SG18386                   0000000180019e48     c1_untitled.obj
 0003:00002e58       $SG17362                   0000000180019e58     c1_untitled.obj
 0003:00002e68       $SG18387                   0000000180019e68     c1_untitled.obj
 0003:00002e78       $SG17363                   0000000180019e78     c1_untitled.obj
 0003:00002e88       $SG18388                   0000000180019e88     c1_untitled.obj
 0003:00002e98       $SG17364                   0000000180019e98     c1_untitled.obj
 0003:00002ea8       $SG18389                   0000000180019ea8     c1_untitled.obj
 0003:00002eb8       $SG17365                   0000000180019eb8     c1_untitled.obj
 0003:00002ec8       $SG18390                   0000000180019ec8     c1_untitled.obj
 0003:00002ed8       $SG18395                   0000000180019ed8     c1_untitled.obj
 0003:00002ee0       $SG18396                   0000000180019ee0     c1_untitled.obj
 0003:00002ee8       $SG18397                   0000000180019ee8     c1_untitled.obj
 0003:00002f28       $SG18398                   0000000180019f28     c1_untitled.obj
 0003:00002f30       $SG18399                   0000000180019f30     c1_untitled.obj
 0003:00002f38       $SG18400                   0000000180019f38     c1_untitled.obj
 0003:00002f40       $SG18401                   0000000180019f40     c1_untitled.obj
 0003:00002f50       $SG18402                   0000000180019f50     c1_untitled.obj
 0003:00002f60       $SG18403                   0000000180019f60     c1_untitled.obj
 0003:00002f68       $SG18404                   0000000180019f68     c1_untitled.obj
 0003:00002f78       $SG18405                   0000000180019f78     c1_untitled.obj
 0003:00002f88       $SG18406                   0000000180019f88     c1_untitled.obj
 0003:00002fc0       $SG18407                   0000000180019fc0     c1_untitled.obj
 0003:00002fd0       $SG18408                   0000000180019fd0     c1_untitled.obj
 0003:00002fe0       $SG18409                   0000000180019fe0     c1_untitled.obj
 0003:00002ff0       $SG18410                   0000000180019ff0     c1_untitled.obj
 0003:00003000       $SG18411                   000000018001a000     c1_untitled.obj
 0003:00003010       $SG18412                   000000018001a010     c1_untitled.obj
 0003:00003020       $SG18413                   000000018001a020     c1_untitled.obj
 0003:00003030       $SG18414                   000000018001a030     c1_untitled.obj
 0003:00003040       $SG18419                   000000018001a040     c1_untitled.obj
 0003:00003048       $SG18420                   000000018001a048     c1_untitled.obj
 0003:00003050       $SG18421                   000000018001a050     c1_untitled.obj
 0003:00003088       $SG18422                   000000018001a088     c1_untitled.obj
 0003:00003090       $SG18423                   000000018001a090     c1_untitled.obj
 0003:00003098       $SG18424                   000000018001a098     c1_untitled.obj
 0003:000030b8       $SG18425                   000000018001a0b8     c1_untitled.obj
 0003:000030c8       $SG18426                   000000018001a0c8     c1_untitled.obj
 0003:000030d8       $SG18427                   000000018001a0d8     c1_untitled.obj
 0003:000030e0       $SG18428                   000000018001a0e0     c1_untitled.obj
 0003:000030f0       $SG18429                   000000018001a0f0     c1_untitled.obj
 0003:00003100       $SG18430                   000000018001a100     c1_untitled.obj
 0003:00003158       $SG18431                   000000018001a158     c1_untitled.obj
 0003:00003170       $SG15397                   000000018001a170     untitled_sfun_registry.obj
 0003:00003194       $SG16706                   000000018001a194     untitled_sfun_registry.obj
 0003:00003198       _sfcnName                  000000018001a198     untitled_sfun_registry.obj
 0003:000031b8       $SG15544                   000000018001a1b8     untitled_sfun_registry.obj
 0003:000031c0       $SG15414                   000000018001a1c0     untitled_sfun_registry.obj
 0003:00003238       $SG15545                   000000018001a238     untitled_sfun_registry.obj
 0003:00003240       $SG15566                   000000018001a240     untitled_sfun_registry.obj
 0003:00003250       $SG15590                   000000018001a250     untitled_sfun_registry.obj
 0003:0000325c       $SG15592                   000000018001a25c     untitled_sfun_registry.obj
 0003:00003264       $SG16779                   000000018001a264     untitled_sfun_registry.obj
 0003:00003268       $SG15595                   000000018001a268     untitled_sfun_registry.obj
 0003:00003274       $SG16725                   000000018001a274     untitled_sfun_registry.obj
 0003:0000327c       $SG15263                   000000018001a27c     untitled_sfun_registry.obj
 0003:00003290       $SG16703                   000000018001a290     untitled_sfun_registry.obj
 0003:000032d0       $SG16726                   000000018001a2d0     untitled_sfun_registry.obj
 0003:000032d8       $SG16727                   000000018001a2d8     untitled_sfun_registry.obj
 0003:000032e0       $SG16728                   000000018001a2e0     untitled_sfun_registry.obj
 0003:00003348       $SG16731                   000000018001a348     untitled_sfun_registry.obj
 0003:00003388       $SG16733                   000000018001a388     untitled_sfun_registry.obj
 0003:00003390       $SG16736                   000000018001a390     untitled_sfun_registry.obj
 0003:00003398       $SG16739                   000000018001a398     untitled_sfun_registry.obj
 0003:000033a0       $SG16741                   000000018001a3a0     untitled_sfun_registry.obj
 0003:000033d0       $SG16743                   000000018001a3d0     untitled_sfun_registry.obj
 0003:000033e0       $SG16771                   000000018001a3e0     untitled_sfun_registry.obj
 0003:000033ec       $SG16773                   000000018001a3ec     untitled_sfun_registry.obj
 0003:000033f4       $SG16775                   000000018001a3f4     untitled_sfun_registry.obj
 0003:00003400       $SG16777                   000000018001a400     untitled_sfun_registry.obj
 0003:00003410       $SG16785                   000000018001a410     untitled_sfun_registry.obj
 0003:000034b8       $SG16804                   000000018001a4b8     untitled_sfun_registry.obj
 0003:000034f0       $SG16807                   000000018001a4f0     untitled_sfun_registry.obj
 0003:00003520       $SG16811                   000000018001a520     untitled_sfun_registry.obj
 0003:00003568       $SG16840                   000000018001a568     untitled_sfun_registry.obj
 0003:00003570       $SG16817                   000000018001a570     untitled_sfun_registry.obj
 0003:000035b8       $SG16820                   000000018001a5b8     untitled_sfun_registry.obj
 0003:000035d8       $SG16842                   000000018001a5d8     untitled_sfun_registry.obj
 0003:000035f0       $SG16844                   000000018001a5f0     untitled_sfun_registry.obj
 0003:00003690       $SG15843                   000000018001a690     untitled_sfun_registry.obj
 0003:00003700       $SG15853                   000000018001a700     untitled_sfun_registry.obj
 0003:00003770       $SG14845                   000000018001a770     untitled_sfun_registry.obj
 0003:00003788       $SG14850                   000000018001a788     untitled_sfun_registry.obj
 0003:00003798       $SG16917                   000000018001a798     untitled_sfun_registry.obj
 0003:000037c8       $SG16925                   000000018001a7c8     untitled_sfun_registry.obj
 0003:000037f0       $SG14879                   000000018001a7f0     untitled_sfun_registry.obj
 0003:00003810       $SG14884                   000000018001a810     untitled_sfun_registry.obj
 0003:00003820       $SG16933                   000000018001a820     untitled_sfun_registry.obj
 0003:00003850       $SG16942                   000000018001a850     untitled_sfun_registry.obj
 0003:00003880       $SG16951                   000000018001a880     untitled_sfun_registry.obj
 0003:000038b8       $SG16956                   000000018001a8b8     untitled_sfun_registry.obj
 0003:000038f0       $SG16964                   000000018001a8f0     untitled_sfun_registry.obj
 0003:00003920       $SG14917                   000000018001a920     untitled_sfun_registry.obj
 0003:00003940       $SG14922                   000000018001a940     untitled_sfun_registry.obj
 0003:00003950       $SG16972                   000000018001a950     untitled_sfun_registry.obj
 0003:00003980       $SG16979                   000000018001a980     untitled_sfun_registry.obj
 0003:000039b0       $SG16986                   000000018001a9b0     untitled_sfun_registry.obj
 0003:000039e0       $SG16991                   000000018001a9e0     untitled_sfun_registry.obj
 0003:00003a10       $SG16999                   000000018001aa10     untitled_sfun_registry.obj
 0003:00003a40       $SG14955                   000000018001aa40     untitled_sfun_registry.obj
 0003:00003a58       $SG17007                   000000018001aa58     untitled_sfun_registry.obj
 0003:00003a90       $SG14960                   000000018001aa90     untitled_sfun_registry.obj
 0003:00003aa0       $SG17012                   000000018001aaa0     untitled_sfun_registry.obj
 0003:00003ad8       $SG17020                   000000018001aad8     untitled_sfun_registry.obj
 0003:00003b08       $SG17026                   000000018001ab08     untitled_sfun_registry.obj
 0003:00003b30       $SG17031                   000000018001ab30     untitled_sfun_registry.obj
 0003:00003b50       $SG17036                   000000018001ab50     untitled_sfun_registry.obj
 0003:00003b80       $SG17041                   000000018001ab80     untitled_sfun_registry.obj
 0003:00003ba0       $SG14993                   000000018001aba0     untitled_sfun_registry.obj
 0003:00003bc0       $SG17046                   000000018001abc0     untitled_sfun_registry.obj
 0003:00003be0       $SG14998                   000000018001abe0     untitled_sfun_registry.obj
 0003:00003bf0       $SG17051                   000000018001abf0     untitled_sfun_registry.obj
 0003:00003c10       $SG17056                   000000018001ac10     untitled_sfun_registry.obj
 0003:00003c38       $SG17061                   000000018001ac38     untitled_sfun_registry.obj
 0003:00003c60       $SG17066                   000000018001ac60     untitled_sfun_registry.obj
 0003:00003c88       $SG17075                   000000018001ac88     untitled_sfun_registry.obj
 0003:00003cb0       $SG17079                   000000018001acb0     untitled_sfun_registry.obj
 0003:00003cd8       $SG15031                   000000018001acd8     untitled_sfun_registry.obj
 0003:00003cf8       $SG15036                   000000018001acf8     untitled_sfun_registry.obj
 0003:00003d08       $SG16061                   000000018001ad08     untitled_sfun_registry.obj
 0003:00003d48       $SG17087                   000000018001ad48     untitled_sfun_registry.obj
 0003:00003d70       $SG16066                   000000018001ad70     untitled_sfun_registry.obj
 0003:00003da0       $SG17094                   000000018001ada0     untitled_sfun_registry.obj
 0003:00003dc8       $SG16085                   000000018001adc8     untitled_sfun_registry.obj
 0003:00003e00       $SG16071                   000000018001ae00     untitled_sfun_registry.obj
 0003:00003e48       $SG15068                   000000018001ae48     untitled_sfun_registry.obj
 0003:00003e60       $SG15073                   000000018001ae60     untitled_sfun_registry.obj
 0003:00003e70       $SG15091                   000000018001ae70     untitled_sfun_registry.obj
 0003:00003e80       $SG15136                   000000018001ae80     untitled_sfun_registry.obj
 0003:00003e98       $SG15167                   000000018001ae98     untitled_sfun_registry.obj
 0003:00003ea8       $SG15264                   000000018001aea8     untitled_sfun_registry.obj
 0003:00003ebc       $SG15269                   000000018001aebc     untitled_sfun_registry.obj
 0003:00003ec8       $SG15270                   000000018001aec8     untitled_sfun_registry.obj
 0003:00003ee8       $SG16357                   000000018001aee8     untitled_sfun_registry.obj
 0003:00003f28       $SG16365                   000000018001af28     untitled_sfun_registry.obj
 0003:00003f60       $SG16379                   000000018001af60     untitled_sfun_registry.obj
 0003:00003fa0       sRtwOptimizationInfoStruct 000000018001afa0     untitled_sfun.obj
 0003:00003fa8       $SG18845                   000000018001afa8     c1_untitled.obj
 0003:00003fa9       $SG18862                   000000018001afa9     c1_untitled.obj
 0003:00003faa       $SG17989                   000000018001afaa     c1_untitled.obj
 0003:00003fab       $SG18061                   000000018001afab     c1_untitled.obj
 0003:00003fac       $SG18133                   000000018001afac     c1_untitled.obj
 0003:00003fb0       _sfTime_                   000000018001afb0     c1_untitled.obj
 0003:00003fc0       $SG16720                   000000018001afc0     untitled_sfun_registry.obj
 0003:00003fd0       sfGlobalMdlStartCallCounts 000000018001afd0     untitled_sfun_registry.obj
 0003:00003fe0       ?errmsg@?N@??ssWriteRTWWorkVect@@9@9 000000018001afe0     untitled_sfun_registry.obj
 0003:000040b0       GS_ExceptionRecord         000000018001b0b0     MSVCRT:gs_report.obj
 0003:00004150       GS_ContextRecord           000000018001b150     MSVCRT:gs_report.obj
 0003:00004620       DebuggerWasPresent         000000018001b620     MSVCRT:gs_report.obj
 0003:00004624       __proc_attached            000000018001b624     MSVCRT:crtdll.obj
 0004:00000000       $pdata$load_untitled_optimization_info 000000018001c000     untitled_sfun.obj
 0004:0000000c       $pdata$unload_untitled_optimization_info 000000018001c00c     untitled_sfun.obj
 0004:00000018       $pdata$sf_untitled_method_dispatcher 000000018001c018     untitled_sfun.obj
 0004:00000024       $pdata$sf_untitled_uses_exported_functions 000000018001c024     untitled_sfun.obj
 0004:00000030       $pdata$sf_untitled_process_check_sum_call 000000018001c030     untitled_sfun.obj
 0004:0000003c       $pdata$sf_untitled_autoinheritance_info 000000018001c03c     untitled_sfun.obj
 0004:00000048       $pdata$sf_untitled_get_eml_resolved_functions_info 000000018001c048     untitled_sfun.obj
 0004:00000054       $pdata$sf_untitled_third_party_uses_info 000000018001c054     untitled_sfun.obj
 0004:00000060       $pdata$sf_untitled_jit_fallback_info 000000018001c060     untitled_sfun.obj
 0004:0000006c       $pdata$sf_untitled_updateBuildInfo_args_info 000000018001c06c     untitled_sfun.obj
 0004:00000078       $pdata$sf_untitled_get_post_codegen_info 000000018001c078     untitled_sfun.obj
 0004:00000084       $pdata$untitled_debug_initialize 000000018001c084     untitled_sfun.obj
 0004:00000090       $pdata$sf_c1_untitled_get_eml_resolved_functions_info 000000018001c090     c1_untitled.obj
 0004:0000009c       $pdata$sf_c1_untitled_get_check_sum 000000018001c09c     c1_untitled.obj
 0004:000000a8       $pdata$c1_untitled_method_dispatcher 000000018001c0a8     c1_untitled.obj
 0004:000000b4       $pdata$initialize_c1_untitled 000000018001c0b4     c1_untitled.obj
 0004:000000c0       $pdata$enable_c1_untitled  000000018001c0c0     c1_untitled.obj
 0004:000000cc       $pdata$disable_c1_untitled 000000018001c0cc     c1_untitled.obj
 0004:000000d8       $pdata$get_sim_state_c1_untitled 000000018001c0d8     c1_untitled.obj
 0004:000000e4       $pdata$set_sim_state_c1_untitled 000000018001c0e4     c1_untitled.obj
 0004:000000f0       $pdata$sf_gateway_c1_untitled 000000018001c0f0     c1_untitled.obj
 0004:000000fc       $pdata$c1_chartstep_c1_untitled 000000018001c0fc     c1_untitled.obj
 0004:00000108       $pdata$init_script_number_translation 000000018001c108     c1_untitled.obj
 0004:00000114       $pdata$c1_sf_marshallOut   000000018001c114     c1_untitled.obj
 0004:00000120       $pdata$c1_emlrt_marshallIn 000000018001c120     c1_untitled.obj
 0004:0000012c       $pdata$c1_b_emlrt_marshallIn 000000018001c12c     c1_untitled.obj
 0004:00000138       $pdata$c1_sf_marshallIn    000000018001c138     c1_untitled.obj
 0004:00000144       $pdata$c1_b_sf_marshallOut 000000018001c144     c1_untitled.obj
 0004:00000150       $pdata$c1_c_sf_marshallOut 000000018001c150     c1_untitled.obj
 0004:0000015c       $pdata$c1_c_emlrt_marshallIn 000000018001c15c     c1_untitled.obj
 0004:00000168       $pdata$c1_b_sf_marshallIn  000000018001c168     c1_untitled.obj
 0004:00000174       $pdata$c1_info_helper      000000018001c174     c1_untitled.obj
 0004:00000180       $pdata$c1_emlrt_marshallOut 000000018001c180     c1_untitled.obj
 0004:0000018c       $pdata$c1_b_emlrt_marshallOut 000000018001c18c     c1_untitled.obj
 0004:00000198       $pdata$c1_power            000000018001c198     c1_untitled.obj
 0004:000001a4       $pdata$c1_rdivide          000000018001c1a4     c1_untitled.obj
 0004:000001b0       $pdata$c1_e_emlrt_marshallIn 000000018001c1b0     c1_untitled.obj
 0004:000001bc       $pdata$c1_f_emlrt_marshallIn 000000018001c1bc     c1_untitled.obj
 0004:000001c8       $pdata$init_simulink_io_address 000000018001c1c8     c1_untitled.obj
 0004:000001d4       $pdata$sf_c1_untitled_get_post_codegen_info 000000018001c1d4     c1_untitled.obj
 0004:000001e0       $pdata$sf_c1_untitled_get_autoinheritance_info 000000018001c1e0     c1_untitled.obj
 0004:000001ec       $pdata$sf_c1_untitled_third_party_uses_info 000000018001c1ec     c1_untitled.obj
 0004:000001f8       $pdata$sf_c1_untitled_jit_fallback_info 000000018001c1f8     c1_untitled.obj
 0004:00000204       $pdata$sf_c1_untitled_updateBuildInfo_args_info 000000018001c204     c1_untitled.obj
 0004:00000210       $pdata$sf_get_sim_state_info_c1_untitled 000000018001c210     c1_untitled.obj
 0004:0000021c       $pdata$chart_debug_initialization 000000018001c21c     c1_untitled.obj
 0004:00000228       $pdata$sf_opaque_initialize_c1_untitled 000000018001c228     c1_untitled.obj
 0004:00000234       $pdata$sf_opaque_enable_c1_untitled 000000018001c234     c1_untitled.obj
 0004:00000240       $pdata$sf_opaque_disable_c1_untitled 000000018001c240     c1_untitled.obj
 0004:0000024c       $pdata$sf_opaque_gateway_c1_untitled 000000018001c24c     c1_untitled.obj
 0004:00000258       $pdata$sf_opaque_get_sim_state_c1_untitled 000000018001c258     c1_untitled.obj
 0004:00000264       $pdata$sf_opaque_set_sim_state_c1_untitled 000000018001c264     c1_untitled.obj
 0004:00000270       $pdata$sf_opaque_terminate_c1_untitled 000000018001c270     c1_untitled.obj
 0004:0000027c       $pdata$sf_opaque_init_subchart_simstructs 000000018001c27c     c1_untitled.obj
 0004:00000288       $pdata$mdlProcessParameters_c1_untitled 000000018001c288     c1_untitled.obj
 0004:00000294       $pdata$mdlSetWorkWidths_c1_untitled 000000018001c294     c1_untitled.obj
 0004:000002a0       $pdata$mdlRTW_c1_untitled  000000018001c2a0     c1_untitled.obj
 0004:000002ac       $pdata$mdlStart_c1_untitled 000000018001c2ac     c1_untitled.obj
 0004:000002b8       $pdata$mexFunction         000000018001c2b8     untitled_sfun_registry.obj
 0004:000002c4       $pdata$_ssSetInputPortDirectFeedThroughFcn 000000018001c2c4     untitled_sfun_registry.obj
 0004:000002d0       $pdata$_ssGetInputPortSignalPtrsFcn 000000018001c2d0     untitled_sfun_registry.obj
 0004:000002dc       $pdata$_ssGetInputPortSignalFcn 000000018001c2dc     untitled_sfun_registry.obj
 0004:000002e8       $pdata$_ssSetInputPortReusableFcn 000000018001c2e8     untitled_sfun_registry.obj
 0004:000002f4       $pdata$_ssSetOutputPortReusableFcn 000000018001c2f4     untitled_sfun_registry.obj
 0004:00000300       $pdata$ssGetIsZeroCrossControlDisabled 000000018001c300     untitled_sfun_registry.obj
 0004:0000030c       $pdata$ssSetIsInputPortUsedForContZcSignal 000000018001c30c     untitled_sfun_registry.obj
 0004:00000318       $pdata$ssSetZcSignalIsZcElementDisc 000000018001c318     untitled_sfun_registry.obj
 0004:00000324       $pdata$ssSetZcSignalName   000000018001c324     untitled_sfun_registry.obj
 0004:00000330       $pdata$ssSetZcSignalWidth  000000018001c330     untitled_sfun_registry.obj
 0004:0000033c       $pdata$ssSetZcSignalZcEventType 000000018001c33c     untitled_sfun_registry.obj
 0004:00000348       $pdata$ssSetZcSignalType   000000018001c348     untitled_sfun_registry.obj
 0004:00000354       $pdata$ssSetZcSignalZcTol  000000018001c354     untitled_sfun_registry.obj
 0004:00000360       $pdata$ssSetZcSignalNeedsEventNotification 000000018001c360     untitled_sfun_registry.obj
 0004:0000036c       $pdata$ssCreateAndAddZcSignalInfo 000000018001c36c     untitled_sfun_registry.obj
 0004:00000378       $pdata$ssCloneAndAddZcSignalInfo 000000018001c378     untitled_sfun_registry.obj
 0004:00000384       $pdata$ssGetNumZcSignals   000000018001c384     untitled_sfun_registry.obj
 0004:00000390       $pdata$ssGetZcSignalVector 000000018001c390     untitled_sfun_registry.obj
 0004:0000039c       $pdata$ssGetZcSignalName   000000018001c39c     untitled_sfun_registry.obj
 0004:000003a8       $pdata$ssGetZcSignalWidth  000000018001c3a8     untitled_sfun_registry.obj
 0004:000003b4       $pdata$ssGetZcSignalZcEventType 000000018001c3b4     untitled_sfun_registry.obj
 0004:000003c0       $pdata$ssGetZcSignalZcEvents 000000018001c3c0     untitled_sfun_registry.obj
 0004:000003cc       $pdata$ssGetZcSignalType   000000018001c3cc     untitled_sfun_registry.obj
 0004:000003d8       $pdata$ssGetZcSignalZcTol  000000018001c3d8     untitled_sfun_registry.obj
 0004:000003e4       $pdata$ssGetZcSignalNeedsEventNotification 000000018001c3e4     untitled_sfun_registry.obj
 0004:000003f0       $pdata$ssGetZcSignalIsZcElementDisc 000000018001c3f0     untitled_sfun_registry.obj
 0004:000003fc       $pdata$ssGetIsInputPortElementContinuous 000000018001c3fc     untitled_sfun_registry.obj
 0004:00000408       $pdata$ssGetDTypeIdFromMxArray 000000018001c408     untitled_sfun_registry.obj
 0004:00000414       $pdata$ssWriteRTWStr       000000018001c414     untitled_sfun_registry.obj
 0004:00000420       $pdata$ssWriteRTWNameValuePair 000000018001c420     untitled_sfun_registry.obj
 0004:0000042c       $pdata$ssWriteRTWParamSettings 000000018001c42c     untitled_sfun_registry.obj
 0004:00000438       $pdata$ssWriteRTWParameters 000000018001c438     untitled_sfun_registry.obj
 0004:00000444       $pdata$ssWriteRTWWorkVect  000000018001c444     untitled_sfun_registry.obj
 0004:00000450       $pdata$ssWriteRTWMxVectParam 000000018001c450     untitled_sfun_registry.obj
 0004:0000045c       $pdata$ssWriteRTWMx2dMatParam 000000018001c45c     untitled_sfun_registry.obj
 0004:00000468       $pdata$_ssSetInputPortMatrixDimensions 000000018001c468     untitled_sfun_registry.obj
 0004:00000474       $pdata$_ssSetOutputPortMatrixDimensions 000000018001c474     untitled_sfun_registry.obj
 0004:00000480       $pdata$_ssSetInputPortVectorDimension 000000018001c480     untitled_sfun_registry.obj
 0004:0000048c       $pdata$_ssSetOutputPortVectorDimension 000000018001c48c     untitled_sfun_registry.obj
 0004:00000498       $pdata$ssIsRunTimeParamTunable 000000018001c498     untitled_sfun_registry.obj
 0004:000004a4       $pdata$ssGetSFuncBlockHandle 000000018001c4a4     untitled_sfun_registry.obj
 0004:000004b0       $pdata$_ssGetCurrentInputPortWidth 000000018001c4b0     untitled_sfun_registry.obj
 0004:000004bc       $pdata$_ssGetCurrentOutputPortWidth 000000018001c4bc     untitled_sfun_registry.obj
 0004:000004c8       $pdata$_ssGetCallSystemNumFcnCallDestinations 000000018001c4c8     untitled_sfun_registry.obj
 0004:000004d4       $pdata$ssWarning           000000018001c4d4     untitled_sfun_registry.obj
 0004:000004e0       $pdata$_ssGetAbsTol        000000018001c4e0     untitled_sfun_registry.obj
 0004:000004ec       $pdata$sf_process_check_sum_call 000000018001c4ec     untitled_sfun_registry.obj
 0004:000004f8       $pdata$sf_process_machine_uses_exported_functions_call 000000018001c4f8     untitled_sfun_registry.obj
 0004:00000504       $pdata$sf_process_autoinheritance_call 000000018001c504     untitled_sfun_registry.obj
 0004:00000510       $pdata$sf_process_get_third_party_uses_info_call 000000018001c510     untitled_sfun_registry.obj
 0004:0000051c       $pdata$sf_process_get_jit_fallback_info_call 000000018001c51c     untitled_sfun_registry.obj
 0004:00000528       $pdata$sf_process_get_updateBuildInfo_args_info_call 000000018001c528     untitled_sfun_registry.obj
 0004:00000534       $pdata$sf_process_get_eml_resolved_functions_info_call 000000018001c534     untitled_sfun_registry.obj
 0004:00000540       $pdata$sf_process_get_post_codegen_info 000000018001c540     untitled_sfun_registry.obj
 0004:0000054c       $pdata$sf_mex_unlock_call  000000018001c54c     untitled_sfun_registry.obj
 0004:00000558       $pdata$sf_debug_api_wrapper 000000018001c558     untitled_sfun_registry.obj
 0004:00000564       $pdata$ProcessMexSfunctionCmdLineCall 000000018001c564     untitled_sfun_registry.obj
 0004:00000570       $pdata$sf_machine_global_initializer_called 000000018001c570     untitled_sfun_registry.obj
 0004:0000057c       $pdata$sf_machine_global_method_dispatcher 000000018001c57c     untitled_sfun_registry.obj
 0004:00000588       $pdata$sf_machine_global_terminator 000000018001c588     untitled_sfun_registry.obj
 0004:00000594       $pdata$sf_register_machine_exported_symbols 000000018001c594     untitled_sfun_registry.obj
 0004:000005a0       $pdata$sf_machine_global_initializer 000000018001c5a0     untitled_sfun_registry.obj
 0004:000005ac       $pdata$getChartInfoFromSimStruct 000000018001c5ac     untitled_sfun_registry.obj
 0004:000005b8       $pdata$mdlGetSimState      000000018001c5b8     untitled_sfun_registry.obj
 0004:000005c4       $pdata$mdlSetSimState      000000018001c5c4     untitled_sfun_registry.obj
 0004:000005d0       $pdata$mdlSetWorkWidths    000000018001c5d0     untitled_sfun_registry.obj
 0004:000005dc       $pdata$mdlProcessParameters 000000018001c5dc     untitled_sfun_registry.obj
 0004:000005e8       $pdata$mdl_start_processing 000000018001c5e8     untitled_sfun_registry.obj
 0004:000005f4       $pdata$mdl_terminate_processing 000000018001c5f4     untitled_sfun_registry.obj
 0004:00000600       $pdata$mdlStart            000000018001c600     untitled_sfun_registry.obj
 0004:0000060c       $pdata$mdlTerminate        000000018001c60c     untitled_sfun_registry.obj
 0004:00000618       $pdata$mdlInitializeSizes  000000018001c618     untitled_sfun_registry.obj
 0004:00000624       $pdata$mdlInitializeSampleTimes 000000018001c624     untitled_sfun_registry.obj
 0004:00000630       $pdata$mdl_outputs_continuous_legacy 000000018001c630     untitled_sfun_registry.obj
 0004:0000063c       $pdata$mdl_outputs_processing 000000018001c63c     untitled_sfun_registry.obj
 0004:00000648       $pdata$mdl_zeroCrossings_processing 000000018001c648     untitled_sfun_registry.obj
 0004:00000654       $pdata$mdlZeroCrossings    000000018001c654     untitled_sfun_registry.obj
 0004:00000660       $pdata$mdl_derivatives_processing 000000018001c660     untitled_sfun_registry.obj
 0004:0000066c       $pdata$mdlDerivatives      000000018001c66c     untitled_sfun_registry.obj
 0004:00000678       $pdata$mdl_initialize_conditions_processing 000000018001c678     untitled_sfun_registry.obj
 0004:00000684       $pdata$mdlInitializeConditions 000000018001c684     untitled_sfun_registry.obj
 0004:00000690       $pdata$mdl_ext_mode_exec_processing 000000018001c690     untitled_sfun_registry.obj
 0004:0000069c       $pdata$mdlExtModeExec      000000018001c69c     untitled_sfun_registry.obj
 0004:000006a8       $pdata$mdlRTW              000000018001c6a8     untitled_sfun_registry.obj
 0004:000006b4       $pdata$mdl_enable_processing 000000018001c6b4     untitled_sfun_registry.obj
 0004:000006c0       $pdata$mdlEnable           000000018001c6c0     untitled_sfun_registry.obj
 0004:000006cc       $pdata$mdl_disable_processing 000000018001c6cc     untitled_sfun_registry.obj
 0004:000006d8       $pdata$mdlDisable          000000018001c6d8     untitled_sfun_registry.obj
 0004:000006e4       $pdata$mdlOutputs          000000018001c6e4     untitled_sfun_registry.obj
 0004:000006f0       $pdata$ProcessMexSfunctionEveryCall 000000018001c6f0     untitled_sfun_registry.obj
 0004:000006fc       $pdata$_RegNumInputPortsCB 000000018001c6fc     untitled_sfun_registry.obj
 0004:00000708       $pdata$_RegNumOutputPortsCB 000000018001c708     untitled_sfun_registry.obj
 0004:00000714       $pdata$_CreateSimStruct    000000018001c714     untitled_sfun_registry.obj
 0004:00000720       $pdata$_ssFatalError       000000018001c720     untitled_sfun_registry.obj
 0004:0000072c       $pdata$_ProcessMexSfunctionCmdLineCall 000000018001c72c     untitled_sfun_registry.obj
 0004:00000738       $pdata$__raise_securityfailure 000000018001c738     MSVCRT:gs_report.obj
 0004:00000744       $pdata$__report_gsfailure  000000018001c744     MSVCRT:gs_report.obj
 0004:00000750       $pdata$__report_rangecheckfailure 000000018001c750     MSVCRT:gs_report.obj
 0004:0000075c       $pdata$__report_securityfailure 000000018001c75c     MSVCRT:gs_report.obj
 0004:00000768       $pdata$__report_securityfailureEx 000000018001c768     MSVCRT:gs_report.obj
 0004:00000774       $pdata$__GSHandlerCheck    000000018001c774     MSVCRT:gshandler.obj
 0004:00000780       $pdata$__GSHandlerCheckCommon 000000018001c780     MSVCRT:gshandler.obj
 0004:00000798       $pdata$pre_c_init          000000018001c798     MSVCRT:crtdll.obj
 0004:000007a4       $pdata$_CRT_INIT           000000018001c7a4     MSVCRT:crtdll.obj
 0004:000007b0       $pdata$_DllMainCRTStartup  000000018001c7b0     MSVCRT:crtdll.obj
 0004:000007bc       $pdata$__DllMainCRTStartup 000000018001c7bc     MSVCRT:crtdll.obj
 0004:000007c8       $pdata$_IsNonwritableInCurrentImage 000000018001c7c8     MSVCRT:pesect.obj
 0004:000007d4       $pdata$__atonexitinit      000000018001c7d4     MSVCRT:atonexit.obj
 0004:000007e0       $pdata$_onexit             000000018001c7e0     MSVCRT:atonexit.obj
 0004:000007ec       $pdata$atexit              000000018001c7ec     MSVCRT:atonexit.obj
 0004:000007f8       $pdata$__security_init_cookie 000000018001c7f8     MSVCRT:gs_support.obj
 0004:00000804       $pdata$DllMain             000000018001c804     MSVCRT:dllmain.obj
 0004:00000810       $pdata$_RTC_Initialize     000000018001c810     MSVCRT:initsect.obj
 0004:0000081c       $pdata$_RTC_Terminate      000000018001c81c     MSVCRT:initsect.obj
 0004:00000828       $pdata$__DllMainCRTStartup$filt$0 000000018001c828     MSVCRT:crtdll.obj
 0004:00000834       $pdata$__DllMainCRTStartup$fin$1 000000018001c834     MSVCRT:crtdll.obj
 0004:00000840       $pdata$_IsNonwritableInCurrentImage$filt$0 000000018001c840     MSVCRT:pesect.obj
 0004:0000084c       $pdata$_onexit$fin$0       000000018001c84c     MSVCRT:atonexit.obj
